TN:
SF:/home/lex/for_tp/TP2022/task4/include/json.hpp
FN:99,_ZNK8nlohmann6detail10position_tcvmEv
FN:2186,_ZNK8nlohmann6detail9exception4whatEv
FN:2196,_ZN8nlohmann6detail9exceptionC2EiPKc
FN:2198,_ZN8nlohmann6detail9exception4nameERKNSt7__cxx1112basic_stringIcSt11char_traitsIcESaIcEEEi
FN:2264,_ZN8nlohmann6detail11parse_error6createEiRKNS0_10position_tERKNSt7__cxx1112basic_stringIcSt11char_traitsIcESaIcEEE
FN:2291,_ZN8nlohmann6detail11parse_errorC2EimPKc
FN:2294,_ZN8nlohmann6detail11parse_error15position_stringB5cxx11ERKNS0_10position_tE
FN:2341,_ZN8nlohmann6detail16invalid_iterator6createEiRKNSt7__cxx1112basic_stringIcSt11char_traitsIcESaIcEEE
FN:2349,_ZN8nlohmann6detail16invalid_iteratorC2EiPKc
FN:2395,_ZN8nlohmann6detail10type_error6createEiRKNSt7__cxx1112basic_stringIcSt11char_traitsIcESaIcEEE
FN:2403,_ZN8nlohmann6detail10type_errorC2EiPKc
FN:2442,_ZN8nlohmann6detail12out_of_range6createEiRKNSt7__cxx1112basic_stringIcSt11char_traitsIcESaIcEEE
FN:2450,_ZN8nlohmann6detail12out_of_rangeC2EiPKc
FN:2480,_ZN8nlohmann6detail11other_error6createEiRKNSt7__cxx1112basic_stringIcSt11char_traitsIcESaIcEEE
FN:2488,_ZN8nlohmann6detail11other_errorC2EiPKc
FN:3489,_ZN8nlohmann6detail9from_jsonINS_10basic_jsonISt3mapSt6vectorNSt7__cxx1112basic_stringIcSt11char_traitsIcESaIcEEEblmdSaNS_14adl_serializerES4_IhSaIhEEEEfLi0EEEvRKT_RT0_
FN:3580,_ZNK8nlohmann6detail12from_json_fnclINS_10basic_jsonISt3mapSt6vectorNSt7__cxx1112basic_stringIcSt11char_traitsIcESaIcEEEblmdSaNS_14adl_serializerES5_IhSaIhEEEEfEEDTcmcl9from_jsonfp_fp0_Ecvv_EERKT_RT0_
FN:3812,_ZN8nlohmann6detail20external_constructorILNS0_7value_tE4EE9constructINS_10basic_jsonISt3mapSt6vectorNSt7__cxx1112basic_stringIcSt11char_traitsIcESaIcEEEblmdSaNS_14adl_serializerES7_IhSaIhEEEEEEvRT_NSI_9boolean_tE
FN:3824,_ZN8nlohmann6detail20external_constructorILNS0_7value_tE3EE9constructINS_10basic_jsonISt3mapSt6vectorNSt7__cxx1112basic_stringIcSt11char_traitsIcESaIcEEEblmdSaNS_14adl_serializerES7_IhSaIhEEEEEEvRT_RKNSI_8string_tE
FN:3876,_ZN8nlohmann6detail20external_constructorILNS0_7value_tE7EE9constructINS_10basic_jsonISt3mapSt6vectorNSt7__cxx1112basic_stringIcSt11char_traitsIcESaIcEEEblmdSaNS_14adl_serializerES7_IhSaIhEEEEEEvRT_NSI_14number_float_tE
FN:3888,_ZN8nlohmann6detail20external_constructorILNS0_7value_tE6EE9constructINS_10basic_jsonISt3mapSt6vectorNSt7__cxx1112basic_stringIcSt11char_traitsIcESaIcEEEblmdSaNS_14adl_serializerES7_IhSaIhEEEEEEvRT_NSI_17number_unsigned_tE
FN:3900,_ZN8nlohmann6detail20external_constructorILNS0_7value_tE5EE9constructINS_10basic_jsonISt3mapSt6vectorNSt7__cxx1112basic_stringIcSt11char_traitsIcESaIcEEEblmdSaNS_14adl_serializerES7_IhSaIhEEEEEEvRT_NSI_16number_integer_tE
FN:4005,_ZN8nlohmann6detail7to_jsonINS_10basic_jsonISt3mapSt6vectorNSt7__cxx1112basic_stringIcSt11char_traitsIcESaIcEEEblmdSaNS_14adl_serializerES4_IhSaIhEEEEbLi0EEEvRT_T0_
FN:4012,_ZN8nlohmann6detail7to_jsonINS_10basic_jsonISt3mapSt6vectorNSt7__cxx1112basic_stringIcSt11char_traitsIcESaIcEEEblmdSaNS_14adl_serializerES4_IhSaIhEEEESA_Li0EEEvRT_RKT0_
FN:4025,_ZN8nlohmann6detail7to_jsonINS_10basic_jsonISt3mapSt6vectorNSt7__cxx1112basic_stringIcSt11char_traitsIcESaIcEEEblmdSaNS_14adl_serializerES4_IhSaIhEEEEdLi0EEEvRT_T0_
FN:4032,_ZN8nlohmann6detail7to_jsonINS_10basic_jsonISt3mapSt6vectorNSt7__cxx1112basic_stringIcSt11char_traitsIcESaIcEEEblmdSaNS_14adl_serializerES4_IhSaIhEEEEmLi0EEEvRT_T0_
FN:4039,_ZN8nlohmann6detail7to_jsonINS_10basic_jsonISt3mapSt6vectorNSt7__cxx1112basic_stringIcSt11char_traitsIcESaIcEEEblmdSaNS_14adl_serializerES4_IhSaIhEEEElLi0EEEvRT_T0_
FN:4136,_ZNK8nlohmann6detail10to_json_fnclINS_10basic_jsonISt3mapSt6vectorNSt7__cxx1112basic_stringIcSt11char_traitsIcESaIcEEEblmdSaNS_14adl_serializerES5_IhSaIhEEEERSB_EEDTcmcl7to_jsonfp_cl7forwardIT0_Efp0_EEcvv_EERT_OSH_
FN:4136,_ZNK8nlohmann6detail10to_json_fnclINS_10basic_jsonISt3mapSt6vectorNSt7__cxx1112basic_stringIcSt11char_traitsIcESaIcEEEblmdSaNS_14adl_serializerES5_IhSaIhEEEERlEEDTcmcl7to_jsonfp_cl7forwardIT0_Efp0_EEcvv_EERT_OSH_
FN:4136,_ZNK8nlohmann6detail10to_json_fnclINS_10basic_jsonISt3mapSt6vectorNSt7__cxx1112basic_stringIcSt11char_traitsIcESaIcEEEblmdSaNS_14adl_serializerES5_IhSaIhEEEERbEEDTcmcl7to_jsonfp_cl7forwardIT0_Efp0_EEcvv_EERT_OSH_
FN:4136,_ZNK8nlohmann6detail10to_json_fnclINS_10basic_jsonISt3mapSt6vectorNSt7__cxx1112basic_stringIcSt11char_traitsIcESaIcEEEblmdSaNS_14adl_serializerES5_IhSaIhEEEERdEEDTcmcl7to_jsonfp_cl7forwardIT0_Efp0_EEcvv_EERT_OSH_
FN:4136,_ZNK8nlohmann6detail10to_json_fnclINS_10basic_jsonISt3mapSt6vectorNSt7__cxx1112basic_stringIcSt11char_traitsIcESaIcEEEblmdSaNS_14adl_serializerES5_IhSaIhEEEERmEEDTcmcl7to_jsonfp_cl7forwardIT0_Efp0_EEcvv_EERT_OSH_
FN:4168,_ZN8nlohmann14adl_serializerIfvE9from_jsonIRKNS_10basic_jsonISt3mapSt6vectorNSt7__cxx1112basic_stringIcSt11char_traitsIcESaIcEEEblmdSaS0_S5_IhSaIhEEEEfEEDTcmclL_ZNS_12_GLOBAL__N_19from_jsonEEcl7forwardIT_Efp_Efp0_Ecvv_EEOSI_RT0_
FN:4185,_ZN8nlohmann14adl_serializerINSt7__cxx1112basic_stringIcSt11char_traitsIcESaIcEEEvE7to_jsonINS_10basic_jsonISt3mapSt6vectorS6_blmdSaS0_SB_IhSaIhEEEERS6_EEDTcmclL_ZNS_12_GLOBAL__N_17to_jsonEEfp_cl7forwardIT0_Efp0_EEcvv_EERT_OSH_
FN:4185,_ZN8nlohmann14adl_serializerIdvE7to_jsonINS_10basic_jsonISt3mapSt6vectorNSt7__cxx1112basic_stringIcSt11char_traitsIcESaIcEEEblmdSaS0_S5_IhSaIhEEEERdEEDTcmclL_ZNS_12_GLOBAL__N_17to_jsonEEfp_cl7forwardIT0_Efp0_EEcvv_EERT_OSH_
FN:4185,_ZN8nlohmann14adl_serializerIbvE7to_jsonINS_10basic_jsonISt3mapSt6vectorNSt7__cxx1112basic_stringIcSt11char_traitsIcESaIcEEEblmdSaS0_S5_IhSaIhEEEERbEEDTcmclL_ZNS_12_GLOBAL__N_17to_jsonEEfp_cl7forwardIT0_Efp0_EEcvv_EERT_OSH_
FN:4185,_ZN8nlohmann14adl_serializerImvE7to_jsonINS_10basic_jsonISt3mapSt6vectorNSt7__cxx1112basic_stringIcSt11char_traitsIcESaIcEEEblmdSaS0_S5_IhSaIhEEEERmEEDTcmclL_ZNS_12_GLOBAL__N_17to_jsonEEfp_cl7forwardIT0_Efp0_EEcvv_EERT_OSH_
FN:4185,_ZN8nlohmann14adl_serializerIlvE7to_jsonINS_10basic_jsonISt3mapSt6vectorNSt7__cxx1112basic_stringIcSt11char_traitsIcESaIcEEEblmdSaS0_S5_IhSaIhEEEERlEEDTcmclL_ZNS_12_GLOBAL__N_17to_jsonEEfp_cl7forwardIT0_Efp0_EEcvv_EERT_OSH_
FN:4266,_ZN8nlohmann6detail22input_adapter_protocolD0Ev
FN:4266,_ZN8nlohmann6detail22input_adapter_protocolD2Ev
FN:4355,_ZN8nlohmann6detail20input_buffer_adapterC2EPKcm
FN:4364,_ZN8nlohmann6detail20input_buffer_adapterD2Ev
FN:4364,_ZN8nlohmann6detail20input_buffer_adapterD0Ev
FN:4366,_ZN8nlohmann6detail20input_buffer_adapter13get_characterEv
FN:4607,_ZN8nlohmann6detail13input_adapterC2IN9__gnu_cxx17__normal_iteratorIPKcNSt7__cxx1112basic_stringIcSt11char_traitsIcESaIcEEEEELi0EEET_SE_
FN:4614,_ZZN8nlohmann6detail13input_adapterC4IN9__gnu_cxx17__normal_iteratorIPKcNSt7__cxx1112basic_stringIcSt11char_traitsIcESaIcEEEEELi0EEET_SE_ENKUlSt4pairIbiERS5_E_clESG_SH_
FN:4650,_ZN8nlohmann6detail13input_adapterC2INSt7__cxx1112basic_stringIcSt11char_traitsIcESaIcEEELi0EEERKT_
FN:4653,_ZN8nlohmann6detail13input_adaptercvSt10shared_ptrINS0_22input_adapter_protocolEEEv
FN:4835,_ZN8nlohmann6detail19json_sax_dom_parserINS_10basic_jsonISt3mapSt6vectorNSt7__cxx1112basic_stringIcSt11char_traitsIcESaIcEEEblmdSaNS_14adl_serializerES4_IhSaIhEEEEEC2ERSE_b
FN:4844,_ZN8nlohmann6detail19json_sax_dom_parserINS_10basic_jsonISt3mapSt6vectorNSt7__cxx1112basic_stringIcSt11char_traitsIcESaIcEEEblmdSaNS_14adl_serializerES4_IhSaIhEEEEED2Ev
FN:4846,_ZN8nlohmann6detail19json_sax_dom_parserINS_10basic_jsonISt3mapSt6vectorNSt7__cxx1112basic_stringIcSt11char_traitsIcESaIcEEEblmdSaNS_14adl_serializerES4_IhSaIhEEEEE4nullEv
FN:4852,_ZN8nlohmann6detail19json_sax_dom_parserINS_10basic_jsonISt3mapSt6vectorNSt7__cxx1112basic_stringIcSt11char_traitsIcESaIcEEEblmdSaNS_14adl_serializerES4_IhSaIhEEEEE7booleanEb
FN:4858,_ZN8nlohmann6detail19json_sax_dom_parserINS_10basic_jsonISt3mapSt6vectorNSt7__cxx1112basic_stringIcSt11char_traitsIcESaIcEEEblmdSaNS_14adl_serializerES4_IhSaIhEEEEE14number_integerEl
FN:4864,_ZN8nlohmann6detail19json_sax_dom_parserINS_10basic_jsonISt3mapSt6vectorNSt7__cxx1112basic_stringIcSt11char_traitsIcESaIcEEEblmdSaNS_14adl_serializerES4_IhSaIhEEEEE15number_unsignedEm
FN:4870,_ZN8nlohmann6detail19json_sax_dom_parserINS_10basic_jsonISt3mapSt6vectorNSt7__cxx1112basic_stringIcSt11char_traitsIcESaIcEEEblmdSaNS_14adl_serializerES4_IhSaIhEEEEE12number_floatEdRKSA_
FN:4876,_ZN8nlohmann6detail19json_sax_dom_parserINS_10basic_jsonISt3mapSt6vectorNSt7__cxx1112basic_stringIcSt11char_traitsIcESaIcEEEblmdSaNS_14adl_serializerES4_IhSaIhEEEEE6stringERSA_
FN:4888,_ZN8nlohmann6detail19json_sax_dom_parserINS_10basic_jsonISt3mapSt6vectorNSt7__cxx1112basic_stringIcSt11char_traitsIcESaIcEEEblmdSaNS_14adl_serializerES4_IhSaIhEEEEE12start_objectEm
FN:4901,_ZN8nlohmann6detail19json_sax_dom_parserINS_10basic_jsonISt3mapSt6vectorNSt7__cxx1112basic_stringIcSt11char_traitsIcESaIcEEEblmdSaNS_14adl_serializerES4_IhSaIhEEEEE3keyERSA_
FN:4908,_ZN8nlohmann6detail19json_sax_dom_parserINS_10basic_jsonISt3mapSt6vectorNSt7__cxx1112basic_stringIcSt11char_traitsIcESaIcEEEblmdSaNS_14adl_serializerES4_IhSaIhEEEEE10end_objectEv
FN:4914,_ZN8nlohmann6detail19json_sax_dom_parserINS_10basic_jsonISt3mapSt6vectorNSt7__cxx1112basic_stringIcSt11char_traitsIcESaIcEEEblmdSaNS_14adl_serializerES4_IhSaIhEEEEE11start_arrayEm
FN:4927,_ZN8nlohmann6detail19json_sax_dom_parserINS_10basic_jsonISt3mapSt6vectorNSt7__cxx1112basic_stringIcSt11char_traitsIcESaIcEEEblmdSaNS_14adl_serializerES4_IhSaIhEEEEE9end_arrayEv
FN:4933,_ZN8nlohmann6detail19json_sax_dom_parserINS_10basic_jsonISt3mapSt6vectorNSt7__cxx1112basic_stringIcSt11char_traitsIcESaIcEEEblmdSaNS_14adl_serializerES4_IhSaIhEEEEE11parse_errorEmRKSA_RKNS0_9exceptionE
FN:4961,_ZNK8nlohmann6detail19json_sax_dom_parserINS_10basic_jsonISt3mapSt6vectorNSt7__cxx1112basic_stringIcSt11char_traitsIcESaIcEEEblmdSaNS_14adl_serializerES4_IhSaIhEEEEE10is_erroredEv
FN:4975,_ZN8nlohmann6detail19json_sax_dom_parserINS_10basic_jsonISt3mapSt6vectorNSt7__cxx1112basic_stringIcSt11char_traitsIcESaIcEEEblmdSaNS_14adl_serializerES4_IhSaIhEEEEE12handle_valueIRbEEPSE_OT_
FN:4975,_ZN8nlohmann6detail19json_sax_dom_parserINS_10basic_jsonISt3mapSt6vectorNSt7__cxx1112basic_stringIcSt11char_traitsIcESaIcEEEblmdSaNS_14adl_serializerES4_IhSaIhEEEEE12handle_valueIRmEEPSE_OT_
FN:4975,_ZN8nlohmann6detail19json_sax_dom_parserINS_10basic_jsonISt3mapSt6vectorNSt7__cxx1112basic_stringIcSt11char_traitsIcESaIcEEEblmdSaNS_14adl_serializerES4_IhSaIhEEEEE12handle_valueINS0_7value_tEEEPSE_OT_
FN:4975,_ZN8nlohmann6detail19json_sax_dom_parserINS_10basic_jsonISt3mapSt6vectorNSt7__cxx1112basic_stringIcSt11char_traitsIcESaIcEEEblmdSaNS_14adl_serializerES4_IhSaIhEEEEE12handle_valueIRlEEPSE_OT_
FN:4975,_ZN8nlohmann6detail19json_sax_dom_parserINS_10basic_jsonISt3mapSt6vectorNSt7__cxx1112basic_stringIcSt11char_traitsIcESaIcEEEblmdSaNS_14adl_serializerES4_IhSaIhEEEEE12handle_valueIRdEEPSE_OT_
FN:4975,_ZN8nlohmann6detail19json_sax_dom_parserINS_10basic_jsonISt3mapSt6vectorNSt7__cxx1112basic_stringIcSt11char_traitsIcESaIcEEEblmdSaNS_14adl_serializerES4_IhSaIhEEEEE12handle_valueIDnEEPSE_OT_
FN:4975,_ZN8nlohmann6detail19json_sax_dom_parserINS_10basic_jsonISt3mapSt6vectorNSt7__cxx1112basic_stringIcSt11char_traitsIcESaIcEEEblmdSaNS_14adl_serializerES4_IhSaIhEEEEE12handle_valueIRSA_EEPSE_OT_
FN:5051,_ZN8nlohmann6detail28json_sax_dom_callback_parserINS_10basic_jsonISt3mapSt6vectorNSt7__cxx1112basic_stringIcSt11char_traitsIcESaIcEEEblmdSaNS_14adl_serializerES4_IhSaIhEEEEEC2ERSE_St8functionIFbiNS0_6parserISE_E13parse_event_tESG_EEb
FN:5064,_ZN8nlohmann6detail28json_sax_dom_callback_parserINS_10basic_jsonISt3mapSt6vectorNSt7__cxx1112basic_stringIcSt11char_traitsIcESaIcEEEblmdSaNS_14adl_serializerES4_IhSaIhEEEEED2Ev
FN:5066,_ZN8nlohmann6detail28json_sax_dom_callback_parserINS_10basic_jsonISt3mapSt6vectorNSt7__cxx1112basic_stringIcSt11char_traitsIcESaIcEEEblmdSaNS_14adl_serializerES4_IhSaIhEEEEE4nullEv
FN:5072,_ZN8nlohmann6detail28json_sax_dom_callback_parserINS_10basic_jsonISt3mapSt6vectorNSt7__cxx1112basic_stringIcSt11char_traitsIcESaIcEEEblmdSaNS_14adl_serializerES4_IhSaIhEEEEE7booleanEb
FN:5078,_ZN8nlohmann6detail28json_sax_dom_callback_parserINS_10basic_jsonISt3mapSt6vectorNSt7__cxx1112basic_stringIcSt11char_traitsIcESaIcEEEblmdSaNS_14adl_serializerES4_IhSaIhEEEEE14number_integerEl
FN:5084,_ZN8nlohmann6detail28json_sax_dom_callback_parserINS_10basic_jsonISt3mapSt6vectorNSt7__cxx1112basic_stringIcSt11char_traitsIcESaIcEEEblmdSaNS_14adl_serializerES4_IhSaIhEEEEE15number_unsignedEm
FN:5090,_ZN8nlohmann6detail28json_sax_dom_callback_parserINS_10basic_jsonISt3mapSt6vectorNSt7__cxx1112basic_stringIcSt11char_traitsIcESaIcEEEblmdSaNS_14adl_serializerES4_IhSaIhEEEEE12number_floatEdRKSA_
FN:5096,_ZN8nlohmann6detail28json_sax_dom_callback_parserINS_10basic_jsonISt3mapSt6vectorNSt7__cxx1112basic_stringIcSt11char_traitsIcESaIcEEEblmdSaNS_14adl_serializerES4_IhSaIhEEEEE6stringERSA_
FN:5108,_ZN8nlohmann6detail28json_sax_dom_callback_parserINS_10basic_jsonISt3mapSt6vectorNSt7__cxx1112basic_stringIcSt11char_traitsIcESaIcEEEblmdSaNS_14adl_serializerES4_IhSaIhEEEEE12start_objectEm
FN:5126,_ZN8nlohmann6detail28json_sax_dom_callback_parserINS_10basic_jsonISt3mapSt6vectorNSt7__cxx1112basic_stringIcSt11char_traitsIcESaIcEEEblmdSaNS_14adl_serializerES4_IhSaIhEEEEE3keyERSA_
FN:5143,_ZN8nlohmann6detail28json_sax_dom_callback_parserINS_10basic_jsonISt3mapSt6vectorNSt7__cxx1112basic_stringIcSt11char_traitsIcESaIcEEEblmdSaNS_14adl_serializerES4_IhSaIhEEEEE10end_objectEv
FN:5172,_ZN8nlohmann6detail28json_sax_dom_callback_parserINS_10basic_jsonISt3mapSt6vectorNSt7__cxx1112basic_stringIcSt11char_traitsIcESaIcEEEblmdSaNS_14adl_serializerES4_IhSaIhEEEEE11start_arrayEm
FN:5189,_ZN8nlohmann6detail28json_sax_dom_callback_parserINS_10basic_jsonISt3mapSt6vectorNSt7__cxx1112basic_stringIcSt11char_traitsIcESaIcEEEblmdSaNS_14adl_serializerES4_IhSaIhEEEEE9end_arrayEv
FN:5217,_ZN8nlohmann6detail28json_sax_dom_callback_parserINS_10basic_jsonISt3mapSt6vectorNSt7__cxx1112basic_stringIcSt11char_traitsIcESaIcEEEblmdSaNS_14adl_serializerES4_IhSaIhEEEEE11parse_errorEmRKSA_RKNS0_9exceptionE
FN:5245,_ZNK8nlohmann6detail28json_sax_dom_callback_parserINS_10basic_jsonISt3mapSt6vectorNSt7__cxx1112basic_stringIcSt11char_traitsIcESaIcEEEblmdSaNS_14adl_serializerES4_IhSaIhEEEEE10is_erroredEv
FN:5267,_ZN8nlohmann6detail28json_sax_dom_callback_parserINS_10basic_jsonISt3mapSt6vectorNSt7__cxx1112basic_stringIcSt11char_traitsIcESaIcEEEblmdSaNS_14adl_serializerES4_IhSaIhEEEEE12handle_valueINS0_7value_tEEESt4pairIbPSE_EOT_b
FN:5267,_ZN8nlohmann6detail28json_sax_dom_callback_parserINS_10basic_jsonISt3mapSt6vectorNSt7__cxx1112basic_stringIcSt11char_traitsIcESaIcEEEblmdSaNS_14adl_serializerES4_IhSaIhEEEEE12handle_valueIRbEESt4pairIbPSE_EOT_b
FN:5267,_ZN8nlohmann6detail28json_sax_dom_callback_parserINS_10basic_jsonISt3mapSt6vectorNSt7__cxx1112basic_stringIcSt11char_traitsIcESaIcEEEblmdSaNS_14adl_serializerES4_IhSaIhEEEEE12handle_valueIRdEESt4pairIbPSE_EOT_b
FN:5267,_ZN8nlohmann6detail28json_sax_dom_callback_parserINS_10basic_jsonISt3mapSt6vectorNSt7__cxx1112basic_stringIcSt11char_traitsIcESaIcEEEblmdSaNS_14adl_serializerES4_IhSaIhEEEEE12handle_valueIRmEESt4pairIbPSE_EOT_b
FN:5267,_ZN8nlohmann6detail28json_sax_dom_callback_parserINS_10basic_jsonISt3mapSt6vectorNSt7__cxx1112basic_stringIcSt11char_traitsIcESaIcEEEblmdSaNS_14adl_serializerES4_IhSaIhEEEEE12handle_valueIDnEESt4pairIbPSE_EOT_b
FN:5267,_ZN8nlohmann6detail28json_sax_dom_callback_parserINS_10basic_jsonISt3mapSt6vectorNSt7__cxx1112basic_stringIcSt11char_traitsIcESaIcEEEblmdSaNS_14adl_serializerES4_IhSaIhEEEEE12handle_valueIRlEESt4pairIbPSE_EOT_b
FN:5267,_ZN8nlohmann6detail28json_sax_dom_callback_parserINS_10basic_jsonISt3mapSt6vectorNSt7__cxx1112basic_stringIcSt11char_traitsIcESaIcEEEblmdSaNS_14adl_serializerES4_IhSaIhEEEEE12handle_valueIRSA_EESt4pairIbPSE_EOT_b
FN:7927,_ZN8nlohmann6detail5lexerINS_10basic_jsonISt3mapSt6vectorNSt7__cxx1112basic_stringIcSt11char_traitsIcESaIcEEEblmdSaNS_14adl_serializerES4_IhSaIhEEEEE15token_type_nameENSF_10token_typeE
FN:7970,_ZN8nlohmann6detail5lexerINS_10basic_jsonISt3mapSt6vectorNSt7__cxx1112basic_stringIcSt11char_traitsIcESaIcEEEblmdSaNS_14adl_serializerES4_IhSaIhEEEEEC2EOSt10shared_ptrINS0_22input_adapter_protocolEE
FN:7978,_ZN8nlohmann6detail5lexerINS_10basic_jsonISt3mapSt6vectorNSt7__cxx1112basic_stringIcSt11char_traitsIcESaIcEEEblmdSaNS_14adl_serializerES4_IhSaIhEEEEED2Ev
FN:7987,_ZN8nlohmann6detail5lexerINS_10basic_jsonISt3mapSt6vectorNSt7__cxx1112basic_stringIcSt11char_traitsIcESaIcEEEblmdSaNS_14adl_serializerES4_IhSaIhEEEEE17get_decimal_pointEv
FN:8013,_ZN8nlohmann6detail5lexerINS_10basic_jsonISt3mapSt6vectorNSt7__cxx1112basic_stringIcSt11char_traitsIcESaIcEEEblmdSaNS_14adl_serializerES4_IhSaIhEEEEE13get_codepointEv
FN:8061,_ZN8nlohmann6detail5lexerINS_10basic_jsonISt3mapSt6vectorNSt7__cxx1112basic_stringIcSt11char_traitsIcESaIcEEEblmdSaNS_14adl_serializerES4_IhSaIhEEEEE18next_byte_in_rangeESt16initializer_listIiE
FN:8098,_ZN8nlohmann6detail5lexerINS_10basic_jsonISt3mapSt6vectorNSt7__cxx1112basic_stringIcSt11char_traitsIcESaIcEEEblmdSaNS_14adl_serializerES4_IhSaIhEEEEE11scan_stringEv
FN:8691,_ZN8nlohmann6detail5lexerINS_10basic_jsonISt3mapSt6vectorNSt7__cxx1112basic_stringIcSt11char_traitsIcESaIcEEEblmdSaNS_14adl_serializerES4_IhSaIhEEEEE6strtofERdPKcPPc
FN:8742,_ZN8nlohmann6detail5lexerINS_10basic_jsonISt3mapSt6vectorNSt7__cxx1112basic_stringIcSt11char_traitsIcESaIcEEEblmdSaNS_14adl_serializerES4_IhSaIhEEEEE11scan_numberEv
FN:9073,_ZN8nlohmann6detail5lexerINS_10basic_jsonISt3mapSt6vectorNSt7__cxx1112basic_stringIcSt11char_traitsIcESaIcEEEblmdSaNS_14adl_serializerES4_IhSaIhEEEEE12scan_literalEPKcmNSF_10token_typeE
FN:9093,_ZN8nlohmann6detail5lexerINS_10basic_jsonISt3mapSt6vectorNSt7__cxx1112basic_stringIcSt11char_traitsIcESaIcEEEblmdSaNS_14adl_serializerES4_IhSaIhEEEEE5resetEv
FN:9110,_ZN8nlohmann6detail5lexerINS_10basic_jsonISt3mapSt6vectorNSt7__cxx1112basic_stringIcSt11char_traitsIcESaIcEEEblmdSaNS_14adl_serializerES4_IhSaIhEEEEE3getEv
FN:9147,_ZN8nlohmann6detail5lexerINS_10basic_jsonISt3mapSt6vectorNSt7__cxx1112basic_stringIcSt11char_traitsIcESaIcEEEblmdSaNS_14adl_serializerES4_IhSaIhEEEEE5ungetEv
FN:9174,_ZN8nlohmann6detail5lexerINS_10basic_jsonISt3mapSt6vectorNSt7__cxx1112basic_stringIcSt11char_traitsIcESaIcEEEblmdSaNS_14adl_serializerES4_IhSaIhEEEEE3addEi
FN:9185,_ZNK8nlohmann6detail5lexerINS_10basic_jsonISt3mapSt6vectorNSt7__cxx1112basic_stringIcSt11char_traitsIcESaIcEEEblmdSaNS_14adl_serializerES4_IhSaIhEEEEE18get_number_integerEv
FN:9191,_ZNK8nlohmann6detail5lexerINS_10basic_jsonISt3mapSt6vectorNSt7__cxx1112basic_stringIcSt11char_traitsIcESaIcEEEblmdSaNS_14adl_serializerES4_IhSaIhEEEEE19get_number_unsignedEv
FN:9197,_ZNK8nlohmann6detail5lexerINS_10basic_jsonISt3mapSt6vectorNSt7__cxx1112basic_stringIcSt11char_traitsIcESaIcEEEblmdSaNS_14adl_serializerES4_IhSaIhEEEEE16get_number_floatEv
FN:9203,_ZN8nlohmann6detail5lexerINS_10basic_jsonISt3mapSt6vectorNSt7__cxx1112basic_stringIcSt11char_traitsIcESaIcEEEblmdSaNS_14adl_serializerES4_IhSaIhEEEEE10get_stringEv
FN:9213,_ZNK8nlohmann6detail5lexerINS_10basic_jsonISt3mapSt6vectorNSt7__cxx1112basic_stringIcSt11char_traitsIcESaIcEEEblmdSaNS_14adl_serializerES4_IhSaIhEEEEE12get_positionEv
FN:9221,_ZNK8nlohmann6detail5lexerINS_10basic_jsonISt3mapSt6vectorNSt7__cxx1112basic_stringIcSt11char_traitsIcESaIcEEEblmdSaNS_14adl_serializerES4_IhSaIhEEEEE16get_token_stringEv
FN:9246,_ZNK8nlohmann6detail5lexerINS_10basic_jsonISt3mapSt6vectorNSt7__cxx1112basic_stringIcSt11char_traitsIcESaIcEEEblmdSaNS_14adl_serializerES4_IhSaIhEEEEE17get_error_messageEv
FN:9259,_ZN8nlohmann6detail5lexerINS_10basic_jsonISt3mapSt6vectorNSt7__cxx1112basic_stringIcSt11char_traitsIcESaIcEEEblmdSaNS_14adl_serializerES4_IhSaIhEEEEE8skip_bomEv
FN:9273,_ZN8nlohmann6detail5lexerINS_10basic_jsonISt3mapSt6vectorNSt7__cxx1112basic_stringIcSt11char_traitsIcESaIcEEEblmdSaNS_14adl_serializerES4_IhSaIhEEEEE4scanEv
FN:9447,_ZN8nlohmann6detail6parserINS_10basic_jsonISt3mapSt6vectorNSt7__cxx1112basic_stringIcSt11char_traitsIcESaIcEEEblmdSaNS_14adl_serializerES4_IhSaIhEEEEEC2EOSt10shared_ptrINS0_22input_adapter_protocolEESt8functionIFbiNSF_13parse_event_tERSE_EEb
FN:9466,_ZN8nlohmann6detail6parserINS_10basic_jsonISt3mapSt6vectorNSt7__cxx1112basic_stringIcSt11char_traitsIcESaIcEEEblmdSaNS_14adl_serializerES4_IhSaIhEEEEE5parseEbRSE_
FN:9555,_ZN8nlohmann6detail6parserINS_10basic_jsonISt3mapSt6vectorNSt7__cxx1112basic_stringIcSt11char_traitsIcESaIcEEEblmdSaNS_14adl_serializerES4_IhSaIhEEEEE18sax_parse_internalINS0_28json_sax_dom_callback_parserISE_EEEEbPT_
FN:9555,_ZN8nlohmann6detail6parserINS_10basic_jsonISt3mapSt6vectorNSt7__cxx1112basic_stringIcSt11char_traitsIcESaIcEEEblmdSaNS_14adl_serializerES4_IhSaIhEEEEE18sax_parse_internalINS0_19json_sax_dom_parserISE_EEEEbPT_
FN:9837,_ZN8nlohmann6detail6parserINS_10basic_jsonISt3mapSt6vectorNSt7__cxx1112basic_stringIcSt11char_traitsIcESaIcEEEblmdSaNS_14adl_serializerES4_IhSaIhEEEEE9get_tokenEv
FN:9842,_ZN8nlohmann6detail6parserINS_10basic_jsonISt3mapSt6vectorNSt7__cxx1112basic_stringIcSt11char_traitsIcESaIcEEEblmdSaNS_14adl_serializerES4_IhSaIhEEEEE17exception_messageENS0_5lexerISE_E10token_typeERKSA_
FN:9923,_ZN8nlohmann6detail20primitive_iterator_t9set_beginEv
FN:9929,_ZN8nlohmann6detail20primitive_iterator_t7set_endEv
FN:9935,_ZNK8nlohmann6detail20primitive_iterator_t8is_beginEv
FN:9946,_ZN8nlohmann6detaileqENS0_20primitive_iterator_tES1_
FN:9968,_ZN8nlohmann6detail20primitive_iterator_tppEv
FN:10127,_ZN8nlohmann6detail9iter_implINS_10basic_jsonISt3mapSt6vectorNSt7__cxx1112basic_stringIcSt11char_traitsIcESaIcEEEblmdSaNS_14adl_serializerES4_IhSaIhEEEEEC2EPSE_
FN:10191,_ZN8nlohmann6detail9iter_implINS_10basic_jsonISt3mapSt6vectorNSt7__cxx1112basic_stringIcSt11char_traitsIcESaIcEEEblmdSaNS_14adl_serializerES4_IhSaIhEEEEEC2ERKSF_
FN:10213,_ZN8nlohmann6detail9iter_implINS_10basic_jsonISt3mapSt6vectorNSt7__cxx1112basic_stringIcSt11char_traitsIcESaIcEEEblmdSaNS_14adl_serializerES4_IhSaIhEEEEE9set_beginEv
FN:10250,_ZN8nlohmann6detail9iter_implINS_10basic_jsonISt3mapSt6vectorNSt7__cxx1112basic_stringIcSt11char_traitsIcESaIcEEEblmdSaNS_14adl_serializerES4_IhSaIhEEEEE7set_endEv
FN:10318,_ZNK8nlohmann6detail9iter_implINS_10basic_jsonISt3mapSt6vectorNSt7__cxx1112basic_stringIcSt11char_traitsIcESaIcEEEblmdSaNS_14adl_serializerES4_IhSaIhEEEEEptEv
FN:10363,_ZN8nlohmann6detail9iter_implINS_10basic_jsonISt3mapSt6vectorNSt7__cxx1112basic_stringIcSt11char_traitsIcESaIcEEEblmdSaNS_14adl_serializerES4_IhSaIhEEEEEppEv
FN:10438,_ZNK8nlohmann6detail9iter_implINS_10basic_jsonISt3mapSt6vectorNSt7__cxx1112basic_stringIcSt11char_traitsIcESaIcEEEblmdSaNS_14adl_serializerES4_IhSaIhEEEEEeqERKSF_
FN:10465,_ZNK8nlohmann6detail9iter_implINS_10basic_jsonISt3mapSt6vectorNSt7__cxx1112basic_stringIcSt11char_traitsIcESaIcEEEblmdSaNS_14adl_serializerES4_IhSaIhEEEEEneERKSF_
FN:16400,_ZN8nlohmann10basic_jsonISt3mapSt6vectorNSt7__cxx1112basic_stringIcSt11char_traitsIcESaIcEEEblmdSaNS_14adl_serializerES2_IhSaIhEEE17internal_binary_tC2Ev
FN:16401,_ZN8nlohmann10basic_jsonISt3mapSt6vectorNSt7__cxx1112basic_stringIcSt11char_traitsIcESaIcEEEblmdSaNS_14adl_serializerES2_IhSaIhEEE17internal_binary_tC2ERKSB_
FN:16417,_ZN8nlohmann10basic_jsonISt3mapSt6vectorNSt7__cxx1112basic_stringIcSt11char_traitsIcESaIcEEEblmdSaNS_14adl_serializerES2_IhSaIhEEE6createINSC_17internal_binary_tEJEEEPT_DpOT0_
FN:16417,_ZN8nlohmann10basic_jsonISt3mapSt6vectorNSt7__cxx1112basic_stringIcSt11char_traitsIcESaIcEEEblmdSaNS_14adl_serializerES2_IhSaIhEEE6createIS8_JRKS8_EEEPT_DpOT0_
FN:16417,_ZN8nlohmann10basic_jsonISt3mapSt6vectorNSt7__cxx1112basic_stringIcSt11char_traitsIcESaIcEEEblmdSaNS_14adl_serializerES2_IhSaIhEEE6createIS8_JRA1_KcEEEPT_DpOT0_
FN:16417,_ZN8nlohmann10basic_jsonISt3mapSt6vectorNSt7__cxx1112basic_stringIcSt11char_traitsIcESaIcEEEblmdSaNS_14adl_serializerES2_IhSaIhEEE6createIS1_IS8_SC_St4lessIvESaISt4pairIKS8_SC_EEEJRKSK_EEEPT_DpOT0_
FN:16417,_ZN8nlohmann10basic_jsonISt3mapSt6vectorNSt7__cxx1112basic_stringIcSt11char_traitsIcESaIcEEEblmdSaNS_14adl_serializerES2_IhSaIhEEE6createIS2_ISC_SaISC_EEJRKSF_EEEPT_DpOT0_
FN:16417,_ZN8nlohmann10basic_jsonISt3mapSt6vectorNSt7__cxx1112basic_stringIcSt11char_traitsIcESaIcEEEblmdSaNS_14adl_serializerES2_IhSaIhEEE6createIS2_ISC_SaISC_EEJEEEPT_DpOT0_
FN:16417,_ZN8nlohmann10basic_jsonISt3mapSt6vectorNSt7__cxx1112basic_stringIcSt11char_traitsIcESaIcEEEblmdSaNS_14adl_serializerES2_IhSaIhEEE6createIS1_IS8_SC_St4lessIvESaISt4pairIKS8_SC_EEEJEEEPT_DpOT0_
FN:16417,_ZN8nlohmann10basic_jsonISt3mapSt6vectorNSt7__cxx1112basic_stringIcSt11char_traitsIcESaIcEEEblmdSaNS_14adl_serializerES2_IhSaIhEEE6createINSC_17internal_binary_tEJRKSB_EEEPT_DpOT0_
FN:16422,_ZZN8nlohmann10basic_jsonISt3mapSt6vectorNSt7__cxx1112basic_stringIcSt11char_traitsIcESaIcEEEblmdSaNS_14adl_serializerES2_IhSaIhEEE6createINSC_17internal_binary_tEJEEEPT_DpOT0_ENKUlPSE_E_clESK_
FN:16422,_ZZN8nlohmann10basic_jsonISt3mapSt6vectorNSt7__cxx1112basic_stringIcSt11char_traitsIcESaIcEEEblmdSaNS_14adl_serializerES2_IhSaIhEEE6createIS8_JRA1_KcEEEPT_DpOT0_ENKUlPS8_E_clESM_
FN:16422,_ZZN8nlohmann10basic_jsonISt3mapSt6vectorNSt7__cxx1112basic_stringIcSt11char_traitsIcESaIcEEEblmdSaNS_14adl_serializerES2_IhSaIhEEE6createIS2_ISC_SaISC_EEJRKSF_EEEPT_DpOT0_ENKUlPSF_E_clESN_
FN:16422,_ZZN8nlohmann10basic_jsonISt3mapSt6vectorNSt7__cxx1112basic_stringIcSt11char_traitsIcESaIcEEEblmdSaNS_14adl_serializerES2_IhSaIhEEE6createIS1_IS8_SC_St4lessIvESaISt4pairIKS8_SC_EEEJEEEPT_DpOT0_ENKUlPSK_E_clESQ_
FN:16422,_ZZN8nlohmann10basic_jsonISt3mapSt6vectorNSt7__cxx1112basic_stringIcSt11char_traitsIcESaIcEEEblmdSaNS_14adl_serializerES2_IhSaIhEEE6createIS8_JRKS8_EEEPT_DpOT0_ENKUlPS8_E_clESL_
FN:16422,_ZZN8nlohmann10basic_jsonISt3mapSt6vectorNSt7__cxx1112basic_stringIcSt11char_traitsIcESaIcEEEblmdSaNS_14adl_serializerES2_IhSaIhEEE6createINSC_17internal_binary_tEJRKSB_EEEPT_DpOT0_ENKUlPSE_E_clESM_
FN:16422,_ZZN8nlohmann10basic_jsonISt3mapSt6vectorNSt7__cxx1112basic_stringIcSt11char_traitsIcESaIcEEEblmdSaNS_14adl_serializerES2_IhSaIhEEE6createIS2_ISC_SaISC_EEJEEEPT_DpOT0_ENKUlPSF_E_clESL_
FN:16422,_ZZN8nlohmann10basic_jsonISt3mapSt6vectorNSt7__cxx1112basic_stringIcSt11char_traitsIcESaIcEEEblmdSaNS_14adl_serializerES2_IhSaIhEEE6createIS1_IS8_SC_St4lessIvESaISt4pairIKS8_SC_EEEJRKSK_EEEPT_DpOT0_ENKUlPSK_E_clESS_
FN:16483,_ZN8nlohmann10basic_jsonISt3mapSt6vectorNSt7__cxx1112basic_stringIcSt11char_traitsIcESaIcEEEblmdSaNS_14adl_serializerES2_IhSaIhEEE10json_valueC2Eb
FN:16485,_ZN8nlohmann10basic_jsonISt3mapSt6vectorNSt7__cxx1112basic_stringIcSt11char_traitsIcESaIcEEEblmdSaNS_14adl_serializerES2_IhSaIhEEE10json_valueC2El
FN:16487,_ZN8nlohmann10basic_jsonISt3mapSt6vectorNSt7__cxx1112basic_stringIcSt11char_traitsIcESaIcEEEblmdSaNS_14adl_serializerES2_IhSaIhEEE10json_valueC2Em
FN:16489,_ZN8nlohmann10basic_jsonISt3mapSt6vectorNSt7__cxx1112basic_stringIcSt11char_traitsIcESaIcEEEblmdSaNS_14adl_serializerES2_IhSaIhEEE10json_valueC2Ed
FN:16491,_ZN8nlohmann10basic_jsonISt3mapSt6vectorNSt7__cxx1112basic_stringIcSt11char_traitsIcESaIcEEEblmdSaNS_14adl_serializerES2_IhSaIhEEE10json_valueC2ENS_6detail7value_tE
FN:16562,_ZN8nlohmann10basic_jsonISt3mapSt6vectorNSt7__cxx1112basic_stringIcSt11char_traitsIcESaIcEEEblmdSaNS_14adl_serializerES2_IhSaIhEEE10json_valueC2ERKS8_
FN:16574,_ZN8nlohmann10basic_jsonISt3mapSt6vectorNSt7__cxx1112basic_stringIcSt11char_traitsIcESaIcEEEblmdSaNS_14adl_serializerES2_IhSaIhEEE10json_valueC2ERKS1_IS8_SC_St4lessIvESaISt4pairIKS8_SC_EEE
FN:16586,_ZN8nlohmann10basic_jsonISt3mapSt6vectorNSt7__cxx1112basic_stringIcSt11char_traitsIcESaIcEEEblmdSaNS_14adl_serializerES2_IhSaIhEEE10json_valueC2ERKS2_ISC_SaISC_EE
FN:16598,_ZN8nlohmann10basic_jsonISt3mapSt6vectorNSt7__cxx1112basic_stringIcSt11char_traitsIcESaIcEEEblmdSaNS_14adl_serializerES2_IhSaIhEEE10json_valueC2ERKSB_
FN:16609,_ZN8nlohmann10basic_jsonISt3mapSt6vectorNSt7__cxx1112basic_stringIcSt11char_traitsIcESaIcEEEblmdSaNS_14adl_serializerES2_IhSaIhEEE10json_value7destroyENS_6detail7value_tE
FN:16709,_ZNK8nlohmann10basic_jsonISt3mapSt6vectorNSt7__cxx1112basic_stringIcSt11char_traitsIcESaIcEEEblmdSaNS_14adl_serializerES2_IhSaIhEEE16assert_invariantEv
FN:16828,_ZN8nlohmann10basic_jsonISt3mapSt6vectorNSt7__cxx1112basic_stringIcSt11char_traitsIcESaIcEEEblmdSaNS_14adl_serializerES2_IhSaIhEEEC2ENS_6detail7value_tE
FN:16852,_ZN8nlohmann10basic_jsonISt3mapSt6vectorNSt7__cxx1112basic_stringIcSt11char_traitsIcESaIcEEEblmdSaNS_14adl_serializerES2_IhSaIhEEEC2EDn
FN:16925,_ZN8nlohmann10basic_jsonISt3mapSt6vectorNSt7__cxx1112basic_stringIcSt11char_traitsIcESaIcEEEblmdSaNS_14adl_serializerES2_IhSaIhEEEC2IRbbLi0EEEOT_
FN:16925,_ZN8nlohmann10basic_jsonISt3mapSt6vectorNSt7__cxx1112basic_stringIcSt11char_traitsIcESaIcEEEblmdSaNS_14adl_serializerES2_IhSaIhEEEC2IRmmLi0EEEOT_
FN:16925,_ZN8nlohmann10basic_jsonISt3mapSt6vectorNSt7__cxx1112basic_stringIcSt11char_traitsIcESaIcEEEblmdSaNS_14adl_serializerES2_IhSaIhEEEC2IRllLi0EEEOT_
FN:16925,_ZN8nlohmann10basic_jsonISt3mapSt6vectorNSt7__cxx1112basic_stringIcSt11char_traitsIcESaIcEEEblmdSaNS_14adl_serializerES2_IhSaIhEEEC2IRS8_S8_Li0EEEOT_
FN:16925,_ZN8nlohmann10basic_jsonISt3mapSt6vectorNSt7__cxx1112basic_stringIcSt11char_traitsIcESaIcEEEblmdSaNS_14adl_serializerES2_IhSaIhEEEC2IRddLi0EEEOT_
FN:17514,_ZN8nlohmann10basic_jsonISt3mapSt6vectorNSt7__cxx1112basic_stringIcSt11char_traitsIcESaIcEEEblmdSaNS_14adl_serializerES2_IhSaIhEEEC2ERKSC_
FN:17603,_ZN8nlohmann10basic_jsonISt3mapSt6vectorNSt7__cxx1112basic_stringIcSt11char_traitsIcESaIcEEEblmdSaNS_14adl_serializerES2_IhSaIhEEEC2EOSC_
FN:17640,_ZN8nlohmann10basic_jsonISt3mapSt6vectorNSt7__cxx1112basic_stringIcSt11char_traitsIcESaIcEEEblmdSaNS_14adl_serializerES2_IhSaIhEEEaSESC_
FN:17673,_ZN8nlohmann10basic_jsonISt3mapSt6vectorNSt7__cxx1112basic_stringIcSt11char_traitsIcESaIcEEEblmdSaNS_14adl_serializerES2_IhSaIhEEED2Ev
FN:17870,_ZNK8nlohmann10basic_jsonISt3mapSt6vectorNSt7__cxx1112basic_stringIcSt11char_traitsIcESaIcEEEblmdSaNS_14adl_serializerES2_IhSaIhEEE7is_nullEv
FN:17892,_ZNK8nlohmann10basic_jsonISt3mapSt6vectorNSt7__cxx1112basic_stringIcSt11char_traitsIcESaIcEEEblmdSaNS_14adl_serializerES2_IhSaIhEEE10is_booleanEv
FN:17951,_ZNK8nlohmann10basic_jsonISt3mapSt6vectorNSt7__cxx1112basic_stringIcSt11char_traitsIcESaIcEEEblmdSaNS_14adl_serializerES2_IhSaIhEEE17is_number_integerEv
FN:17979,_ZNK8nlohmann10basic_jsonISt3mapSt6vectorNSt7__cxx1112basic_stringIcSt11char_traitsIcESaIcEEEblmdSaNS_14adl_serializerES2_IhSaIhEEE18is_number_unsignedEv
FN:18007,_ZNK8nlohmann10basic_jsonISt3mapSt6vectorNSt7__cxx1112basic_stringIcSt11char_traitsIcESaIcEEEblmdSaNS_14adl_serializerES2_IhSaIhEEE15is_number_floatEv
FN:18029,_ZNK8nlohmann10basic_jsonISt3mapSt6vectorNSt7__cxx1112basic_stringIcSt11char_traitsIcESaIcEEEblmdSaNS_14adl_serializerES2_IhSaIhEEE9is_objectEv
FN:18051,_ZNK8nlohmann10basic_jsonISt3mapSt6vectorNSt7__cxx1112basic_stringIcSt11char_traitsIcESaIcEEEblmdSaNS_14adl_serializerES2_IhSaIhEEE8is_arrayEv
FN:18073,_ZNK8nlohmann10basic_jsonISt3mapSt6vectorNSt7__cxx1112basic_stringIcSt11char_traitsIcESaIcEEEblmdSaNS_14adl_serializerES2_IhSaIhEEE9is_stringEv
FN:18095,_ZNK8nlohmann10basic_jsonISt3mapSt6vectorNSt7__cxx1112basic_stringIcSt11char_traitsIcESaIcEEEblmdSaNS_14adl_serializerES2_IhSaIhEEE9is_binaryEv
FN:18122,_ZNK8nlohmann10basic_jsonISt3mapSt6vectorNSt7__cxx1112basic_stringIcSt11char_traitsIcESaIcEEEblmdSaNS_14adl_serializerES2_IhSaIhEEE12is_discardedEv
FN:18148,_ZNK8nlohmann10basic_jsonISt3mapSt6vectorNSt7__cxx1112basic_stringIcSt11char_traitsIcESaIcEEEblmdSaNS_14adl_serializerES2_IhSaIhEEEcvNS_6detail7value_tEEv
FN:18214,_ZNK8nlohmann10basic_jsonISt3mapSt6vectorNSt7__cxx1112basic_stringIcSt11char_traitsIcESaIcEEEblmdSaNS_14adl_serializerES2_IhSaIhEEE12get_impl_ptrEPKb
FN:18226,_ZNK8nlohmann10basic_jsonISt3mapSt6vectorNSt7__cxx1112basic_stringIcSt11char_traitsIcESaIcEEEblmdSaNS_14adl_serializerES2_IhSaIhEEE12get_impl_ptrEPKl
FN:18238,_ZNK8nlohmann10basic_jsonISt3mapSt6vectorNSt7__cxx1112basic_stringIcSt11char_traitsIcESaIcEEEblmdSaNS_14adl_serializerES2_IhSaIhEEE12get_impl_ptrEPKm
FN:18250,_ZNK8nlohmann10basic_jsonISt3mapSt6vectorNSt7__cxx1112basic_stringIcSt11char_traitsIcESaIcEEEblmdSaNS_14adl_serializerES2_IhSaIhEEE12get_impl_ptrEPKd
FN:18399,_ZNK8nlohmann10basic_jsonISt3mapSt6vectorNSt7__cxx1112basic_stringIcSt11char_traitsIcESaIcEEEblmdSaNS_14adl_serializerES2_IhSaIhEEE3getIffLi0EEET0_v
FN:18558,_ZNK8nlohmann10basic_jsonISt3mapSt6vectorNSt7__cxx1112basic_stringIcSt11char_traitsIcESaIcEEEblmdSaNS_14adl_serializerES2_IhSaIhEEE7get_ptrIPKmLi0EEEDTcldtcl7declvalIRKSC_EE12get_impl_ptrcl7declvalIT_EEEEv
FN:18558,_ZNK8nlohmann10basic_jsonISt3mapSt6vectorNSt7__cxx1112basic_stringIcSt11char_traitsIcESaIcEEEblmdSaNS_14adl_serializerES2_IhSaIhEEE7get_ptrIPKdLi0EEEDTcldtcl7declvalIRKSC_EE12get_impl_ptrcl7declvalIT_EEEEv
FN:18558,_ZNK8nlohmann10basic_jsonISt3mapSt6vectorNSt7__cxx1112basic_stringIcSt11char_traitsIcESaIcEEEblmdSaNS_14adl_serializerES2_IhSaIhEEE7get_ptrIPKbLi0EEEDTcldtcl7declvalIRKSC_EE12get_impl_ptrcl7declvalIT_EEEEv
FN:18558,_ZNK8nlohmann10basic_jsonISt3mapSt6vectorNSt7__cxx1112basic_stringIcSt11char_traitsIcESaIcEEEblmdSaNS_14adl_serializerES2_IhSaIhEEE7get_ptrIPKlLi0EEEDTcldtcl7declvalIRKSC_EE12get_impl_ptrcl7declvalIT_EEEEv
FN:18698,_ZNK8nlohmann10basic_jsonISt3mapSt6vectorNSt7__cxx1112basic_stringIcSt11char_traitsIcESaIcEEEblmdSaNS_14adl_serializerES2_IhSaIhEEEcvT_IfLi0EEEv
FN:18936,_ZN8nlohmann10basic_jsonISt3mapSt6vectorNSt7__cxx1112basic_stringIcSt11char_traitsIcESaIcEEEblmdSaNS_14adl_serializerES2_IhSaIhEEEixEm
FN:19110,_ZN8nlohmann10basic_jsonISt3mapSt6vectorNSt7__cxx1112basic_stringIcSt11char_traitsIcESaIcEEEblmdSaNS_14adl_serializerES2_IhSaIhEEEixIKcEERSC_PT_
FN:19576,_ZN8nlohmann10basic_jsonISt3mapSt6vectorNSt7__cxx1112basic_stringIcSt11char_traitsIcESaIcEEEblmdSaNS_14adl_serializerES2_IhSaIhEEE5eraseINS_6detail9iter_implISC_EELi0EEET_SH_
FN:20026,_ZN8nlohmann10basic_jsonISt3mapSt6vectorNSt7__cxx1112basic_stringIcSt11char_traitsIcESaIcEEEblmdSaNS_14adl_serializerES2_IhSaIhEEE5beginEv
FN:20097,_ZN8nlohmann10basic_jsonISt3mapSt6vectorNSt7__cxx1112basic_stringIcSt11char_traitsIcESaIcEEEblmdSaNS_14adl_serializerES2_IhSaIhEEE3endEv
FN:20549,_ZNK8nlohmann10basic_jsonISt3mapSt6vectorNSt7__cxx1112basic_stringIcSt11char_traitsIcESaIcEEEblmdSaNS_14adl_serializerES2_IhSaIhEEE4sizeEv
FN:20620,_ZNK8nlohmann10basic_jsonISt3mapSt6vectorNSt7__cxx1112basic_stringIcSt11char_traitsIcESaIcEEEblmdSaNS_14adl_serializerES2_IhSaIhEEE8max_sizeEv
FN:22127,_ZN8nlohmann10basic_jsonISt3mapSt6vectorNSt7__cxx1112basic_stringIcSt11char_traitsIcESaIcEEEblmdSaNS_14adl_serializerES2_IhSaIhEEE5parseEONS_6detail13input_adapterESt8functionIFbiNSD_6parserISC_E13parse_event_tERSC_EEb
FN:22369,_ZNK8nlohmann10basic_jsonISt3mapSt6vectorNSt7__cxx1112basic_stringIcSt11char_traitsIcESaIcEEEblmdSaNS_14adl_serializerES2_IhSaIhEEE9type_nameEv
FNDA:0,_ZN8nlohmann6detail22input_adapter_protocolD2Ev
FNDA:0,_ZN8nlohmann6detail10type_errorC2EiPKc
FNDA:0,_ZN8nlohmann10basic_jsonISt3mapSt6vectorNSt7__cxx1112basic_stringIcSt11char_traitsIcESaIcEEEblmdSaNS_14adl_serializerES2_IhSaIhEEE10json_valueC2ERKS1_IS8_SC_St4lessIvESaISt4pairIKS8_SC_EEE
FNDA:0,_ZZN8nlohmann10basic_jsonISt3mapSt6vectorNSt7__cxx1112basic_stringIcSt11char_traitsIcESaIcEEEblmdSaNS_14adl_serializerES2_IhSaIhEEE6createIS1_IS8_SC_St4lessIvESaISt4pairIKS8_SC_EEEJRKSK_EEEPT_DpOT0_ENKUlPSK_E_clESS_
FNDA:0,_ZN8nlohmann6detail28json_sax_dom_callback_parserINS_10basic_jsonISt3mapSt6vectorNSt7__cxx1112basic_stringIcSt11char_traitsIcESaIcEEEblmdSaNS_14adl_serializerES4_IhSaIhEEEEE14number_integerEl
FNDA:0,_ZNK8nlohmann6detail5lexerINS_10basic_jsonISt3mapSt6vectorNSt7__cxx1112basic_stringIcSt11char_traitsIcESaIcEEEblmdSaNS_14adl_serializerES4_IhSaIhEEEEE16get_token_stringEv
FNDA:0,_ZN8nlohmann10basic_jsonISt3mapSt6vectorNSt7__cxx1112basic_stringIcSt11char_traitsIcESaIcEEEblmdSaNS_14adl_serializerES2_IhSaIhEEED2Ev
FNDA:0,_ZN8nlohmann6detail11parse_error6createEiRKNS0_10position_tERKNSt7__cxx1112basic_stringIcSt11char_traitsIcESaIcEEE
FNDA:0,_ZN8nlohmann10basic_jsonISt3mapSt6vectorNSt7__cxx1112basic_stringIcSt11char_traitsIcESaIcEEEblmdSaNS_14adl_serializerES2_IhSaIhEEE6createINSC_17internal_binary_tEJRKSB_EEEPT_DpOT0_
FNDA:0,_ZNK8nlohmann6detail9iter_implINS_10basic_jsonISt3mapSt6vectorNSt7__cxx1112basic_stringIcSt11char_traitsIcESaIcEEEblmdSaNS_14adl_serializerES4_IhSaIhEEEEEneERKSF_
FNDA:0,_ZNK8nlohmann10basic_jsonISt3mapSt6vectorNSt7__cxx1112basic_stringIcSt11char_traitsIcESaIcEEEblmdSaNS_14adl_serializerES2_IhSaIhEEEcvT_IfLi0EEEv
FNDA:0,_ZNK8nlohmann10basic_jsonISt3mapSt6vectorNSt7__cxx1112basic_stringIcSt11char_traitsIcESaIcEEEblmdSaNS_14adl_serializerES2_IhSaIhEEE12get_impl_ptrEPKb
FNDA:0,_ZN8nlohmann6detail5lexerINS_10basic_jsonISt3mapSt6vectorNSt7__cxx1112basic_stringIcSt11char_traitsIcESaIcEEEblmdSaNS_14adl_serializerES4_IhSaIhEEEEE10get_stringEv
FNDA:0,_ZN8nlohmann6detail19json_sax_dom_parserINS_10basic_jsonISt3mapSt6vectorNSt7__cxx1112basic_stringIcSt11char_traitsIcESaIcEEEblmdSaNS_14adl_serializerES4_IhSaIhEEEEE14number_integerEl
FNDA:0,_ZN8nlohmann10basic_jsonISt3mapSt6vectorNSt7__cxx1112basic_stringIcSt11char_traitsIcESaIcEEEblmdSaNS_14adl_serializerES2_IhSaIhEEEaSESC_
FNDA:0,_ZN8nlohmann6detail9iter_implINS_10basic_jsonISt3mapSt6vectorNSt7__cxx1112basic_stringIcSt11char_traitsIcESaIcEEEblmdSaNS_14adl_serializerES4_IhSaIhEEEEEC2ERKSF_
FNDA:0,_ZN8nlohmann6detail6parserINS_10basic_jsonISt3mapSt6vectorNSt7__cxx1112basic_stringIcSt11char_traitsIcESaIcEEEblmdSaNS_14adl_serializerES4_IhSaIhEEEEEC2EOSt10shared_ptrINS0_22input_adapter_protocolEESt8functionIFbiNSF_13parse_event_tERSE_EEb
FNDA:0,_ZN8nlohmann6detail5lexerINS_10basic_jsonISt3mapSt6vectorNSt7__cxx1112basic_stringIcSt11char_traitsIcESaIcEEEblmdSaNS_14adl_serializerES4_IhSaIhEEEEE3addEi
FNDA:0,_ZNK8nlohmann6detail9exception4whatEv
FNDA:0,_ZZN8nlohmann6detail13input_adapterC4IN9__gnu_cxx17__normal_iteratorIPKcNSt7__cxx1112basic_stringIcSt11char_traitsIcESaIcEEEEELi0EEET_SE_ENKUlSt4pairIbiERS5_E_clESG_SH_
FNDA:0,_ZNK8nlohmann6detail5lexerINS_10basic_jsonISt3mapSt6vectorNSt7__cxx1112basic_stringIcSt11char_traitsIcESaIcEEEblmdSaNS_14adl_serializerES4_IhSaIhEEEEE19get_number_unsignedEv
FNDA:0,_ZN8nlohmann10basic_jsonISt3mapSt6vectorNSt7__cxx1112basic_stringIcSt11char_traitsIcESaIcEEEblmdSaNS_14adl_serializerES2_IhSaIhEEE10json_valueC2Em
FNDA:0,_ZN8nlohmann6detail6parserINS_10basic_jsonISt3mapSt6vectorNSt7__cxx1112basic_stringIcSt11char_traitsIcESaIcEEEblmdSaNS_14adl_serializerES4_IhSaIhEEEEE17exception_messageENS0_5lexerISE_E10token_typeERKSA_
FNDA:0,_ZN8nlohmann6detail19json_sax_dom_parserINS_10basic_jsonISt3mapSt6vectorNSt7__cxx1112basic_stringIcSt11char_traitsIcESaIcEEEblmdSaNS_14adl_serializerES4_IhSaIhEEEEEC2ERSE_b
FNDA:0,_ZN8nlohmann6detail9exceptionC2EiPKc
FNDA:0,_ZNK8nlohmann10basic_jsonISt3mapSt6vectorNSt7__cxx1112basic_stringIcSt11char_traitsIcESaIcEEEblmdSaNS_14adl_serializerES2_IhSaIhEEE16assert_invariantEv
FNDA:0,_ZN8nlohmann6detail7to_jsonINS_10basic_jsonISt3mapSt6vectorNSt7__cxx1112basic_stringIcSt11char_traitsIcESaIcEEEblmdSaNS_14adl_serializerES4_IhSaIhEEEESA_Li0EEEvRT_RKT0_
FNDA:0,_ZN8nlohmann10basic_jsonISt3mapSt6vectorNSt7__cxx1112basic_stringIcSt11char_traitsIcESaIcEEEblmdSaNS_14adl_serializerES2_IhSaIhEEE10json_valueC2Eb
FNDA:0,_ZN8nlohmann10basic_jsonISt3mapSt6vectorNSt7__cxx1112basic_stringIcSt11char_traitsIcESaIcEEEblmdSaNS_14adl_serializerES2_IhSaIhEEE10json_value7destroyENS_6detail7value_tE
FNDA:0,_ZN8nlohmann10basic_jsonISt3mapSt6vectorNSt7__cxx1112basic_stringIcSt11char_traitsIcESaIcEEEblmdSaNS_14adl_serializerES2_IhSaIhEEEC2IRS8_S8_Li0EEEOT_
FNDA:0,_ZNK8nlohmann6detail10to_json_fnclINS_10basic_jsonISt3mapSt6vectorNSt7__cxx1112basic_stringIcSt11char_traitsIcESaIcEEEblmdSaNS_14adl_serializerES5_IhSaIhEEEERmEEDTcmcl7to_jsonfp_cl7forwardIT0_Efp0_EEcvv_EERT_OSH_
FNDA:0,_ZNK8nlohmann10basic_jsonISt3mapSt6vectorNSt7__cxx1112basic_stringIcSt11char_traitsIcESaIcEEEblmdSaNS_14adl_serializerES2_IhSaIhEEE7get_ptrIPKlLi0EEEDTcldtcl7declvalIRKSC_EE12get_impl_ptrcl7declvalIT_EEEEv
FNDA:0,_ZN8nlohmann10basic_jsonISt3mapSt6vectorNSt7__cxx1112basic_stringIcSt11char_traitsIcESaIcEEEblmdSaNS_14adl_serializerES2_IhSaIhEEE5eraseINS_6detail9iter_implISC_EELi0EEET_SH_
FNDA:0,_ZN8nlohmann6detail20input_buffer_adapterC2EPKcm
FNDA:0,_ZN8nlohmann6detail9exception4nameERKNSt7__cxx1112basic_stringIcSt11char_traitsIcESaIcEEEi
FNDA:0,_ZN8nlohmann10basic_jsonISt3mapSt6vectorNSt7__cxx1112basic_stringIcSt11char_traitsIcESaIcEEEblmdSaNS_14adl_serializerES2_IhSaIhEEE17internal_binary_tC2Ev
FNDA:0,_ZN8nlohmann10basic_jsonISt3mapSt6vectorNSt7__cxx1112basic_stringIcSt11char_traitsIcESaIcEEEblmdSaNS_14adl_serializerES2_IhSaIhEEEC2IRddLi0EEEOT_
FNDA:0,_ZNK8nlohmann10basic_jsonISt3mapSt6vectorNSt7__cxx1112basic_stringIcSt11char_traitsIcESaIcEEEblmdSaNS_14adl_serializerES2_IhSaIhEEE12get_impl_ptrEPKl
FNDA:0,_ZN8nlohmann6detail13input_adaptercvSt10shared_ptrINS0_22input_adapter_protocolEEEv
FNDA:0,_ZN8nlohmann6detail5lexerINS_10basic_jsonISt3mapSt6vectorNSt7__cxx1112basic_stringIcSt11char_traitsIcESaIcEEEblmdSaNS_14adl_serializerES4_IhSaIhEEEEE6strtofERdPKcPPc
FNDA:0,_ZN8nlohmann6detail9iter_implINS_10basic_jsonISt3mapSt6vectorNSt7__cxx1112basic_stringIcSt11char_traitsIcESaIcEEEblmdSaNS_14adl_serializerES4_IhSaIhEEEEE9set_beginEv
FNDA:0,_ZN8nlohmann6detail10type_error6createEiRKNSt7__cxx1112basic_stringIcSt11char_traitsIcESaIcEEE
FNDA:0,_ZN8nlohmann6detail5lexerINS_10basic_jsonISt3mapSt6vectorNSt7__cxx1112basic_stringIcSt11char_traitsIcESaIcEEEblmdSaNS_14adl_serializerES4_IhSaIhEEEEEC2EOSt10shared_ptrINS0_22input_adapter_protocolEE
FNDA:0,_ZN8nlohmann6detail7to_jsonINS_10basic_jsonISt3mapSt6vectorNSt7__cxx1112basic_stringIcSt11char_traitsIcESaIcEEEblmdSaNS_14adl_serializerES4_IhSaIhEEEEmLi0EEEvRT_T0_
FNDA:0,_ZN8nlohmann6detail28json_sax_dom_callback_parserINS_10basic_jsonISt3mapSt6vectorNSt7__cxx1112basic_stringIcSt11char_traitsIcESaIcEEEblmdSaNS_14adl_serializerES4_IhSaIhEEEEE12handle_valueIRSA_EESt4pairIbPSE_EOT_b
FNDA:0,_ZN8nlohmann14adl_serializerIlvE7to_jsonINS_10basic_jsonISt3mapSt6vectorNSt7__cxx1112basic_stringIcSt11char_traitsIcESaIcEEEblmdSaS0_S5_IhSaIhEEEERlEEDTcmclL_ZNS_12_GLOBAL__N_17to_jsonEEfp_cl7forwardIT0_Efp0_EEcvv_EERT_OSH_
FNDA:0,_ZN8nlohmann6detail9iter_implINS_10basic_jsonISt3mapSt6vectorNSt7__cxx1112basic_stringIcSt11char_traitsIcESaIcEEEblmdSaNS_14adl_serializerES4_IhSaIhEEEEEC2EPSE_
FNDA:0,_ZN8nlohmann6detail9from_jsonINS_10basic_jsonISt3mapSt6vectorNSt7__cxx1112basic_stringIcSt11char_traitsIcESaIcEEEblmdSaNS_14adl_serializerES4_IhSaIhEEEEfLi0EEEvRKT_RT0_
FNDA:0,_ZN8nlohmann6detail28json_sax_dom_callback_parserINS_10basic_jsonISt3mapSt6vectorNSt7__cxx1112basic_stringIcSt11char_traitsIcESaIcEEEblmdSaNS_14adl_serializerES4_IhSaIhEEEEE11parse_errorEmRKSA_RKNS0_9exceptionE
FNDA:0,_ZNK8nlohmann10basic_jsonISt3mapSt6vectorNSt7__cxx1112basic_stringIcSt11char_traitsIcESaIcEEEblmdSaNS_14adl_serializerES2_IhSaIhEEE9is_objectEv
FNDA:0,_ZNK8nlohmann10basic_jsonISt3mapSt6vectorNSt7__cxx1112basic_stringIcSt11char_traitsIcESaIcEEEblmdSaNS_14adl_serializerES2_IhSaIhEEE3getIffLi0EEET0_v
FNDA:0,_ZZN8nlohmann10basic_jsonISt3mapSt6vectorNSt7__cxx1112basic_stringIcSt11char_traitsIcESaIcEEEblmdSaNS_14adl_serializerES2_IhSaIhEEE6createINSC_17internal_binary_tEJRKSB_EEEPT_DpOT0_ENKUlPSE_E_clESM_
FNDA:0,_ZN8nlohmann6detail5lexerINS_10basic_jsonISt3mapSt6vectorNSt7__cxx1112basic_stringIcSt11char_traitsIcESaIcEEEblmdSaNS_14adl_serializerES4_IhSaIhEEEEE11scan_stringEv
FNDA:0,_ZN8nlohmann10basic_jsonISt3mapSt6vectorNSt7__cxx1112basic_stringIcSt11char_traitsIcESaIcEEEblmdSaNS_14adl_serializerES2_IhSaIhEEE10json_valueC2ERKS2_ISC_SaISC_EE
FNDA:0,_ZN8nlohmann6detail19json_sax_dom_parserINS_10basic_jsonISt3mapSt6vectorNSt7__cxx1112basic_stringIcSt11char_traitsIcESaIcEEEblmdSaNS_14adl_serializerES4_IhSaIhEEEEE11parse_errorEmRKSA_RKNS0_9exceptionE
FNDA:0,_ZZN8nlohmann10basic_jsonISt3mapSt6vectorNSt7__cxx1112basic_stringIcSt11char_traitsIcESaIcEEEblmdSaNS_14adl_serializerES2_IhSaIhEEE6createIS2_ISC_SaISC_EEJEEEPT_DpOT0_ENKUlPSF_E_clESL_
FNDA:0,_ZN8nlohmann6detail19json_sax_dom_parserINS_10basic_jsonISt3mapSt6vectorNSt7__cxx1112basic_stringIcSt11char_traitsIcESaIcEEEblmdSaNS_14adl_serializerES4_IhSaIhEEEEE6stringERSA_
FNDA:0,_ZNK8nlohmann10basic_jsonISt3mapSt6vectorNSt7__cxx1112basic_stringIcSt11char_traitsIcESaIcEEEblmdSaNS_14adl_serializerES2_IhSaIhEEE7get_ptrIPKbLi0EEEDTcldtcl7declvalIRKSC_EE12get_impl_ptrcl7declvalIT_EEEEv
FNDA:0,_ZNK8nlohmann6detail10to_json_fnclINS_10basic_jsonISt3mapSt6vectorNSt7__cxx1112basic_stringIcSt11char_traitsIcESaIcEEEblmdSaNS_14adl_serializerES5_IhSaIhEEEERdEEDTcmcl7to_jsonfp_cl7forwardIT0_Efp0_EEcvv_EERT_OSH_
FNDA:0,_ZN8nlohmann10basic_jsonISt3mapSt6vectorNSt7__cxx1112basic_stringIcSt11char_traitsIcESaIcEEEblmdSaNS_14adl_serializerES2_IhSaIhEEE5parseEONS_6detail13input_adapterESt8functionIFbiNSD_6parserISC_E13parse_event_tERSC_EEb
FNDA:0,_ZN8nlohmann6detail11parse_error15position_stringB5cxx11ERKNS0_10position_tE
FNDA:0,_ZN8nlohmann6detail7to_jsonINS_10basic_jsonISt3mapSt6vectorNSt7__cxx1112basic_stringIcSt11char_traitsIcESaIcEEEblmdSaNS_14adl_serializerES4_IhSaIhEEEEdLi0EEEvRT_T0_
FNDA:0,_ZN8nlohmann6detail20external_constructorILNS0_7value_tE4EE9constructINS_10basic_jsonISt3mapSt6vectorNSt7__cxx1112basic_stringIcSt11char_traitsIcESaIcEEEblmdSaNS_14adl_serializerES7_IhSaIhEEEEEEvRT_NSI_9boolean_tE
FNDA:0,_ZN8nlohmann6detail28json_sax_dom_callback_parserINS_10basic_jsonISt3mapSt6vectorNSt7__cxx1112basic_stringIcSt11char_traitsIcESaIcEEEblmdSaNS_14adl_serializerES4_IhSaIhEEEEE9end_arrayEv
FNDA:0,_ZN8nlohmann6detail20primitive_iterator_t7set_endEv
FNDA:0,_ZNK8nlohmann6detail20primitive_iterator_t8is_beginEv
FNDA:0,_ZN8nlohmann10basic_jsonISt3mapSt6vectorNSt7__cxx1112basic_stringIcSt11char_traitsIcESaIcEEEblmdSaNS_14adl_serializerES2_IhSaIhEEEC2EDn
FNDA:0,_ZN8nlohmann6detail5lexerINS_10basic_jsonISt3mapSt6vectorNSt7__cxx1112basic_stringIcSt11char_traitsIcESaIcEEEblmdSaNS_14adl_serializerES4_IhSaIhEEEEE3getEv
FNDA:0,_ZNK8nlohmann6detail28json_sax_dom_callback_parserINS_10basic_jsonISt3mapSt6vectorNSt7__cxx1112basic_stringIcSt11char_traitsIcESaIcEEEblmdSaNS_14adl_serializerES4_IhSaIhEEEEE10is_erroredEv
FNDA:0,_ZN8nlohmann10basic_jsonISt3mapSt6vectorNSt7__cxx1112basic_stringIcSt11char_traitsIcESaIcEEEblmdSaNS_14adl_serializerES2_IhSaIhEEE10json_valueC2El
FNDA:0,_ZN8nlohmann6detail5lexerINS_10basic_jsonISt3mapSt6vectorNSt7__cxx1112basic_stringIcSt11char_traitsIcESaIcEEEblmdSaNS_14adl_serializerES4_IhSaIhEEEEE13get_codepointEv
FNDA:0,_ZN8nlohmann6detail20external_constructorILNS0_7value_tE3EE9constructINS_10basic_jsonISt3mapSt6vectorNSt7__cxx1112basic_stringIcSt11char_traitsIcESaIcEEEblmdSaNS_14adl_serializerES7_IhSaIhEEEEEEvRT_RKNSI_8string_tE
FNDA:0,_ZN8nlohmann6detail19json_sax_dom_parserINS_10basic_jsonISt3mapSt6vectorNSt7__cxx1112basic_stringIcSt11char_traitsIcESaIcEEEblmdSaNS_14adl_serializerES4_IhSaIhEEEEE10end_objectEv
FNDA:0,_ZN8nlohmann6detail22input_adapter_protocolD0Ev
FNDA:0,_ZN8nlohmann6detail28json_sax_dom_callback_parserINS_10basic_jsonISt3mapSt6vectorNSt7__cxx1112basic_stringIcSt11char_traitsIcESaIcEEEblmdSaNS_14adl_serializerES4_IhSaIhEEEEE15number_unsignedEm
FNDA:0,_ZNK8nlohmann10basic_jsonISt3mapSt6vectorNSt7__cxx1112basic_stringIcSt11char_traitsIcESaIcEEEblmdSaNS_14adl_serializerES2_IhSaIhEEE9is_stringEv
FNDA:0,_ZZN8nlohmann10basic_jsonISt3mapSt6vectorNSt7__cxx1112basic_stringIcSt11char_traitsIcESaIcEEEblmdSaNS_14adl_serializerES2_IhSaIhEEE6createIS8_JRKS8_EEEPT_DpOT0_ENKUlPS8_E_clESL_
FNDA:0,_ZN8nlohmann10basic_jsonISt3mapSt6vectorNSt7__cxx1112basic_stringIcSt11char_traitsIcESaIcEEEblmdSaNS_14adl_serializerES2_IhSaIhEEE6createIS1_IS8_SC_St4lessIvESaISt4pairIKS8_SC_EEEJEEEPT_DpOT0_
FNDA:0,_ZN8nlohmann6detail5lexerINS_10basic_jsonISt3mapSt6vectorNSt7__cxx1112basic_stringIcSt11char_traitsIcESaIcEEEblmdSaNS_14adl_serializerES4_IhSaIhEEEEE11scan_numberEv
FNDA:0,_ZN8nlohmann10basic_jsonISt3mapSt6vectorNSt7__cxx1112basic_stringIcSt11char_traitsIcESaIcEEEblmdSaNS_14adl_serializerES2_IhSaIhEEE10json_valueC2ENS_6detail7value_tE
FNDA:0,_ZN8nlohmann6detail28json_sax_dom_callback_parserINS_10basic_jsonISt3mapSt6vectorNSt7__cxx1112basic_stringIcSt11char_traitsIcESaIcEEEblmdSaNS_14adl_serializerES4_IhSaIhEEEEE3keyERSA_
FNDA:0,_ZN8nlohmann6detail28json_sax_dom_callback_parserINS_10basic_jsonISt3mapSt6vectorNSt7__cxx1112basic_stringIcSt11char_traitsIcESaIcEEEblmdSaNS_14adl_serializerES4_IhSaIhEEEEE12number_floatEdRKSA_
FNDA:0,_ZN8nlohmann6detail19json_sax_dom_parserINS_10basic_jsonISt3mapSt6vectorNSt7__cxx1112basic_stringIcSt11char_traitsIcESaIcEEEblmdSaNS_14adl_serializerES4_IhSaIhEEEEED2Ev
FNDA:0,_ZN8nlohmann6detail6parserINS_10basic_jsonISt3mapSt6vectorNSt7__cxx1112basic_stringIcSt11char_traitsIcESaIcEEEblmdSaNS_14adl_serializerES4_IhSaIhEEEEE18sax_parse_internalINS0_19json_sax_dom_parserISE_EEEEbPT_
FNDA:0,_ZN8nlohmann10basic_jsonISt3mapSt6vectorNSt7__cxx1112basic_stringIcSt11char_traitsIcESaIcEEEblmdSaNS_14adl_serializerES2_IhSaIhEEEC2IRllLi0EEEOT_
FNDA:0,_ZN8nlohmann6detail19json_sax_dom_parserINS_10basic_jsonISt3mapSt6vectorNSt7__cxx1112basic_stringIcSt11char_traitsIcESaIcEEEblmdSaNS_14adl_serializerES4_IhSaIhEEEEE11start_arrayEm
FNDA:0,_ZNK8nlohmann6detail9iter_implINS_10basic_jsonISt3mapSt6vectorNSt7__cxx1112basic_stringIcSt11char_traitsIcESaIcEEEblmdSaNS_14adl_serializerES4_IhSaIhEEEEEptEv
FNDA:0,_ZNK8nlohmann10basic_jsonISt3mapSt6vectorNSt7__cxx1112basic_stringIcSt11char_traitsIcESaIcEEEblmdSaNS_14adl_serializerES2_IhSaIhEEEcvNS_6detail7value_tEEv
FNDA:0,_ZN8nlohmann10basic_jsonISt3mapSt6vectorNSt7__cxx1112basic_stringIcSt11char_traitsIcESaIcEEEblmdSaNS_14adl_serializerES2_IhSaIhEEEC2ERKSC_
FNDA:0,_ZNK8nlohmann6detail5lexerINS_10basic_jsonISt3mapSt6vectorNSt7__cxx1112basic_stringIcSt11char_traitsIcESaIcEEEblmdSaNS_14adl_serializerES4_IhSaIhEEEEE16get_number_floatEv
FNDA:0,_ZN8nlohmann10basic_jsonISt3mapSt6vectorNSt7__cxx1112basic_stringIcSt11char_traitsIcESaIcEEEblmdSaNS_14adl_serializerES2_IhSaIhEEEixIKcEERSC_PT_
FNDA:0,_ZN8nlohmann10basic_jsonISt3mapSt6vectorNSt7__cxx1112basic_stringIcSt11char_traitsIcESaIcEEEblmdSaNS_14adl_serializerES2_IhSaIhEEEC2ENS_6detail7value_tE
FNDA:0,_ZN8nlohmann14adl_serializerImvE7to_jsonINS_10basic_jsonISt3mapSt6vectorNSt7__cxx1112basic_stringIcSt11char_traitsIcESaIcEEEblmdSaS0_S5_IhSaIhEEEERmEEDTcmclL_ZNS_12_GLOBAL__N_17to_jsonEEfp_cl7forwardIT0_Efp0_EEcvv_EERT_OSH_
FNDA:0,_ZN8nlohmann10basic_jsonISt3mapSt6vectorNSt7__cxx1112basic_stringIcSt11char_traitsIcESaIcEEEblmdSaNS_14adl_serializerES2_IhSaIhEEE10json_valueC2ERKS8_
FNDA:0,_ZN8nlohmann6detail20input_buffer_adapterD0Ev
FNDA:0,_ZN8nlohmann10basic_jsonISt3mapSt6vectorNSt7__cxx1112basic_stringIcSt11char_traitsIcESaIcEEEblmdSaNS_14adl_serializerES2_IhSaIhEEE6createIS2_ISC_SaISC_EEJRKSF_EEEPT_DpOT0_
FNDA:0,_ZN8nlohmann10basic_jsonISt3mapSt6vectorNSt7__cxx1112basic_stringIcSt11char_traitsIcESaIcEEEblmdSaNS_14adl_serializerES2_IhSaIhEEEC2IRmmLi0EEEOT_
FNDA:0,_ZN8nlohmann6detail28json_sax_dom_callback_parserINS_10basic_jsonISt3mapSt6vectorNSt7__cxx1112basic_stringIcSt11char_traitsIcESaIcEEEblmdSaNS_14adl_serializerES4_IhSaIhEEEEE10end_objectEv
FNDA:0,_ZN8nlohmann6detail7to_jsonINS_10basic_jsonISt3mapSt6vectorNSt7__cxx1112basic_stringIcSt11char_traitsIcESaIcEEEblmdSaNS_14adl_serializerES4_IhSaIhEEEElLi0EEEvRT_T0_
FNDA:0,_ZNK8nlohmann10basic_jsonISt3mapSt6vectorNSt7__cxx1112basic_stringIcSt11char_traitsIcESaIcEEEblmdSaNS_14adl_serializerES2_IhSaIhEEE12get_impl_ptrEPKd
FNDA:0,_ZN8nlohmann6detail19json_sax_dom_parserINS_10basic_jsonISt3mapSt6vectorNSt7__cxx1112basic_stringIcSt11char_traitsIcESaIcEEEblmdSaNS_14adl_serializerES4_IhSaIhEEEEE12handle_valueIDnEEPSE_OT_
FNDA:0,_ZN8nlohmann10basic_jsonISt3mapSt6vectorNSt7__cxx1112basic_stringIcSt11char_traitsIcESaIcEEEblmdSaNS_14adl_serializerES2_IhSaIhEEE6createIS2_ISC_SaISC_EEJEEEPT_DpOT0_
FNDA:0,_ZNK8nlohmann10basic_jsonISt3mapSt6vectorNSt7__cxx1112basic_stringIcSt11char_traitsIcESaIcEEEblmdSaNS_14adl_serializerES2_IhSaIhEEE9is_binaryEv
FNDA:0,_ZN8nlohmann6detail19json_sax_dom_parserINS_10basic_jsonISt3mapSt6vectorNSt7__cxx1112basic_stringIcSt11char_traitsIcESaIcEEEblmdSaNS_14adl_serializerES4_IhSaIhEEEEE12handle_valueIRSA_EEPSE_OT_
FNDA:0,_ZN8nlohmann6detail28json_sax_dom_callback_parserINS_10basic_jsonISt3mapSt6vectorNSt7__cxx1112basic_stringIcSt11char_traitsIcESaIcEEEblmdSaNS_14adl_serializerES4_IhSaIhEEEEE12handle_valueIRlEESt4pairIbPSE_EOT_b
FNDA:0,_ZN8nlohmann6detail13input_adapterC2INSt7__cxx1112basic_stringIcSt11char_traitsIcESaIcEEELi0EEERKT_
FNDA:0,_ZN8nlohmann10basic_jsonISt3mapSt6vectorNSt7__cxx1112basic_stringIcSt11char_traitsIcESaIcEEEblmdSaNS_14adl_serializerES2_IhSaIhEEE6createIS1_IS8_SC_St4lessIvESaISt4pairIKS8_SC_EEEJRKSK_EEEPT_DpOT0_
FNDA:0,_ZZN8nlohmann10basic_jsonISt3mapSt6vectorNSt7__cxx1112basic_stringIcSt11char_traitsIcESaIcEEEblmdSaNS_14adl_serializerES2_IhSaIhEEE6createIS1_IS8_SC_St4lessIvESaISt4pairIKS8_SC_EEEJEEEPT_DpOT0_ENKUlPSK_E_clESQ_
FNDA:0,_ZN8nlohmann10basic_jsonISt3mapSt6vectorNSt7__cxx1112basic_stringIcSt11char_traitsIcESaIcEEEblmdSaNS_14adl_serializerES2_IhSaIhEEE3endEv
FNDA:0,_ZN8nlohmann6detail9iter_implINS_10basic_jsonISt3mapSt6vectorNSt7__cxx1112basic_stringIcSt11char_traitsIcESaIcEEEblmdSaNS_14adl_serializerES4_IhSaIhEEEEEppEv
FNDA:0,_ZN8nlohmann6detail9iter_implINS_10basic_jsonISt3mapSt6vectorNSt7__cxx1112basic_stringIcSt11char_traitsIcESaIcEEEblmdSaNS_14adl_serializerES4_IhSaIhEEEEE7set_endEv
FNDA:0,_ZNK8nlohmann6detail10position_tcvmEv
FNDA:0,_ZNK8nlohmann10basic_jsonISt3mapSt6vectorNSt7__cxx1112basic_stringIcSt11char_traitsIcESaIcEEEblmdSaNS_14adl_serializerES2_IhSaIhEEE12get_impl_ptrEPKm
FNDA:0,_ZN8nlohmann6detail28json_sax_dom_callback_parserINS_10basic_jsonISt3mapSt6vectorNSt7__cxx1112basic_stringIcSt11char_traitsIcESaIcEEEblmdSaNS_14adl_serializerES4_IhSaIhEEEEE12handle_valueIRmEESt4pairIbPSE_EOT_b
FNDA:0,_ZN8nlohmann6detail5lexerINS_10basic_jsonISt3mapSt6vectorNSt7__cxx1112basic_stringIcSt11char_traitsIcESaIcEEEblmdSaNS_14adl_serializerES4_IhSaIhEEEEE8skip_bomEv
FNDA:0,_ZN8nlohmann6detail28json_sax_dom_callback_parserINS_10basic_jsonISt3mapSt6vectorNSt7__cxx1112basic_stringIcSt11char_traitsIcESaIcEEEblmdSaNS_14adl_serializerES4_IhSaIhEEEEE11start_arrayEm
FNDA:0,_ZN8nlohmann6detail28json_sax_dom_callback_parserINS_10basic_jsonISt3mapSt6vectorNSt7__cxx1112basic_stringIcSt11char_traitsIcESaIcEEEblmdSaNS_14adl_serializerES4_IhSaIhEEEEE6stringERSA_
FNDA:0,_ZNK8nlohmann6detail5lexerINS_10basic_jsonISt3mapSt6vectorNSt7__cxx1112basic_stringIcSt11char_traitsIcESaIcEEEblmdSaNS_14adl_serializerES4_IhSaIhEEEEE18get_number_integerEv
FNDA:0,_ZN8nlohmann6detail28json_sax_dom_callback_parserINS_10basic_jsonISt3mapSt6vectorNSt7__cxx1112basic_stringIcSt11char_traitsIcESaIcEEEblmdSaNS_14adl_serializerES4_IhSaIhEEEEE12handle_valueIDnEESt4pairIbPSE_EOT_b
FNDA:0,_ZN8nlohmann14adl_serializerIfvE9from_jsonIRKNS_10basic_jsonISt3mapSt6vectorNSt7__cxx1112basic_stringIcSt11char_traitsIcESaIcEEEblmdSaS0_S5_IhSaIhEEEEfEEDTcmclL_ZNS_12_GLOBAL__N_19from_jsonEEcl7forwardIT_Efp_Efp0_Ecvv_EEOSI_RT0_
FNDA:0,_ZNK8nlohmann6detail19json_sax_dom_parserINS_10basic_jsonISt3mapSt6vectorNSt7__cxx1112basic_stringIcSt11char_traitsIcESaIcEEEblmdSaNS_14adl_serializerES4_IhSaIhEEEEE10is_erroredEv
FNDA:0,_ZN8nlohmann6detail28json_sax_dom_callback_parserINS_10basic_jsonISt3mapSt6vectorNSt7__cxx1112basic_stringIcSt11char_traitsIcESaIcEEEblmdSaNS_14adl_serializerES4_IhSaIhEEEEE12handle_valueIRdEESt4pairIbPSE_EOT_b
FNDA:0,_ZN8nlohmann6detail19json_sax_dom_parserINS_10basic_jsonISt3mapSt6vectorNSt7__cxx1112basic_stringIcSt11char_traitsIcESaIcEEEblmdSaNS_14adl_serializerES4_IhSaIhEEEEE12handle_valueIRlEEPSE_OT_
FNDA:0,_ZN8nlohmann6detail19json_sax_dom_parserINS_10basic_jsonISt3mapSt6vectorNSt7__cxx1112basic_stringIcSt11char_traitsIcESaIcEEEblmdSaNS_14adl_serializerES4_IhSaIhEEEEE12number_floatEdRKSA_
FNDA:0,_ZNK8nlohmann6detail5lexerINS_10basic_jsonISt3mapSt6vectorNSt7__cxx1112basic_stringIcSt11char_traitsIcESaIcEEEblmdSaNS_14adl_serializerES4_IhSaIhEEEEE12get_positionEv
FNDA:0,_ZNK8nlohmann10basic_jsonISt3mapSt6vectorNSt7__cxx1112basic_stringIcSt11char_traitsIcESaIcEEEblmdSaNS_14adl_serializerES2_IhSaIhEEE8is_arrayEv
FNDA:0,_ZN8nlohmann6detail19json_sax_dom_parserINS_10basic_jsonISt3mapSt6vectorNSt7__cxx1112basic_stringIcSt11char_traitsIcESaIcEEEblmdSaNS_14adl_serializerES4_IhSaIhEEEEE12handle_valueIRdEEPSE_OT_
FNDA:0,_ZNK8nlohmann10basic_jsonISt3mapSt6vectorNSt7__cxx1112basic_stringIcSt11char_traitsIcESaIcEEEblmdSaNS_14adl_serializerES2_IhSaIhEEE7is_nullEv
FNDA:0,_ZN8nlohmann6detail28json_sax_dom_callback_parserINS_10basic_jsonISt3mapSt6vectorNSt7__cxx1112basic_stringIcSt11char_traitsIcESaIcEEEblmdSaNS_14adl_serializerES4_IhSaIhEEEEE12start_objectEm
FNDA:0,_ZN8nlohmann6detail11other_error6createEiRKNSt7__cxx1112basic_stringIcSt11char_traitsIcESaIcEEE
FNDA:0,_ZN8nlohmann6detail19json_sax_dom_parserINS_10basic_jsonISt3mapSt6vectorNSt7__cxx1112basic_stringIcSt11char_traitsIcESaIcEEEblmdSaNS_14adl_serializerES4_IhSaIhEEEEE15number_unsignedEm
FNDA:0,_ZN8nlohmann6detail12out_of_rangeC2EiPKc
FNDA:0,_ZNK8nlohmann10basic_jsonISt3mapSt6vectorNSt7__cxx1112basic_stringIcSt11char_traitsIcESaIcEEEblmdSaNS_14adl_serializerES2_IhSaIhEEE17is_number_integerEv
FNDA:0,_ZNK8nlohmann6detail12from_json_fnclINS_10basic_jsonISt3mapSt6vectorNSt7__cxx1112basic_stringIcSt11char_traitsIcESaIcEEEblmdSaNS_14adl_serializerES5_IhSaIhEEEEfEEDTcmcl9from_jsonfp_fp0_Ecvv_EERKT_RT0_
FNDA:0,_ZN8nlohmann6detail5lexerINS_10basic_jsonISt3mapSt6vectorNSt7__cxx1112basic_stringIcSt11char_traitsIcESaIcEEEblmdSaNS_14adl_serializerES4_IhSaIhEEEEE17get_decimal_pointEv
FNDA:0,_ZN8nlohmann6detail20external_constructorILNS0_7value_tE5EE9constructINS_10basic_jsonISt3mapSt6vectorNSt7__cxx1112basic_stringIcSt11char_traitsIcESaIcEEEblmdSaNS_14adl_serializerES7_IhSaIhEEEEEEvRT_NSI_16number_integer_tE
FNDA:0,_ZN8nlohmann6detail20input_buffer_adapter13get_characterEv
FNDA:0,_ZN8nlohmann6detail19json_sax_dom_parserINS_10basic_jsonISt3mapSt6vectorNSt7__cxx1112basic_stringIcSt11char_traitsIcESaIcEEEblmdSaNS_14adl_serializerES4_IhSaIhEEEEE7booleanEb
FNDA:0,_ZN8nlohmann6detail19json_sax_dom_parserINS_10basic_jsonISt3mapSt6vectorNSt7__cxx1112basic_stringIcSt11char_traitsIcESaIcEEEblmdSaNS_14adl_serializerES4_IhSaIhEEEEE3keyERSA_
FNDA:0,_ZN8nlohmann10basic_jsonISt3mapSt6vectorNSt7__cxx1112basic_stringIcSt11char_traitsIcESaIcEEEblmdSaNS_14adl_serializerES2_IhSaIhEEE6createIS8_JRA1_KcEEEPT_DpOT0_
FNDA:0,_ZN8nlohmann6detail16invalid_iteratorC2EiPKc
FNDA:0,_ZN8nlohmann6detail13input_adapterC2IN9__gnu_cxx17__normal_iteratorIPKcNSt7__cxx1112basic_stringIcSt11char_traitsIcESaIcEEEEELi0EEET_SE_
FNDA:0,_ZN8nlohmann6detaileqENS0_20primitive_iterator_tES1_
FNDA:0,_ZNK8nlohmann10basic_jsonISt3mapSt6vectorNSt7__cxx1112basic_stringIcSt11char_traitsIcESaIcEEEblmdSaNS_14adl_serializerES2_IhSaIhEEE10is_booleanEv
FNDA:0,_ZN8nlohmann6detail5lexerINS_10basic_jsonISt3mapSt6vectorNSt7__cxx1112basic_stringIcSt11char_traitsIcESaIcEEEblmdSaNS_14adl_serializerES4_IhSaIhEEEEE18next_byte_in_rangeESt16initializer_listIiE
FNDA:0,_ZN8nlohmann6detail5lexerINS_10basic_jsonISt3mapSt6vectorNSt7__cxx1112basic_stringIcSt11char_traitsIcESaIcEEEblmdSaNS_14adl_serializerES4_IhSaIhEEEEE5ungetEv
FNDA:0,_ZN8nlohmann6detail5lexerINS_10basic_jsonISt3mapSt6vectorNSt7__cxx1112basic_stringIcSt11char_traitsIcESaIcEEEblmdSaNS_14adl_serializerES4_IhSaIhEEEEE15token_type_nameENSF_10token_typeE
FNDA:0,_ZN8nlohmann6detail19json_sax_dom_parserINS_10basic_jsonISt3mapSt6vectorNSt7__cxx1112basic_stringIcSt11char_traitsIcESaIcEEEblmdSaNS_14adl_serializerES4_IhSaIhEEEEE12handle_valueINS0_7value_tEEEPSE_OT_
FNDA:0,_ZZN8nlohmann10basic_jsonISt3mapSt6vectorNSt7__cxx1112basic_stringIcSt11char_traitsIcESaIcEEEblmdSaNS_14adl_serializerES2_IhSaIhEEE6createIS8_JRA1_KcEEEPT_DpOT0_ENKUlPS8_E_clESM_
FNDA:0,_ZN8nlohmann10basic_jsonISt3mapSt6vectorNSt7__cxx1112basic_stringIcSt11char_traitsIcESaIcEEEblmdSaNS_14adl_serializerES2_IhSaIhEEE10json_valueC2ERKSB_
FNDA:0,_ZN8nlohmann6detail28json_sax_dom_callback_parserINS_10basic_jsonISt3mapSt6vectorNSt7__cxx1112basic_stringIcSt11char_traitsIcESaIcEEEblmdSaNS_14adl_serializerES4_IhSaIhEEEEE12handle_valueIRbEESt4pairIbPSE_EOT_b
FNDA:0,_ZN8nlohmann6detail5lexerINS_10basic_jsonISt3mapSt6vectorNSt7__cxx1112basic_stringIcSt11char_traitsIcESaIcEEEblmdSaNS_14adl_serializerES4_IhSaIhEEEEED2Ev
FNDA:0,_ZZN8nlohmann10basic_jsonISt3mapSt6vectorNSt7__cxx1112basic_stringIcSt11char_traitsIcESaIcEEEblmdSaNS_14adl_serializerES2_IhSaIhEEE6createIS2_ISC_SaISC_EEJRKSF_EEEPT_DpOT0_ENKUlPSF_E_clESN_
FNDA:0,_ZNK8nlohmann6detail5lexerINS_10basic_jsonISt3mapSt6vectorNSt7__cxx1112basic_stringIcSt11char_traitsIcESaIcEEEblmdSaNS_14adl_serializerES4_IhSaIhEEEEE17get_error_messageEv
FNDA:0,_ZN8nlohmann6detail28json_sax_dom_callback_parserINS_10basic_jsonISt3mapSt6vectorNSt7__cxx1112basic_stringIcSt11char_traitsIcESaIcEEEblmdSaNS_14adl_serializerES4_IhSaIhEEEEED2Ev
FNDA:0,_ZN8nlohmann6detail6parserINS_10basic_jsonISt3mapSt6vectorNSt7__cxx1112basic_stringIcSt11char_traitsIcESaIcEEEblmdSaNS_14adl_serializerES4_IhSaIhEEEEE5parseEbRSE_
FNDA:0,_ZN8nlohmann10basic_jsonISt3mapSt6vectorNSt7__cxx1112basic_stringIcSt11char_traitsIcESaIcEEEblmdSaNS_14adl_serializerES2_IhSaIhEEE10json_valueC2Ed
FNDA:0,_ZNK8nlohmann10basic_jsonISt3mapSt6vectorNSt7__cxx1112basic_stringIcSt11char_traitsIcESaIcEEEblmdSaNS_14adl_serializerES2_IhSaIhEEE9type_nameEv
FNDA:0,_ZN8nlohmann6detail20input_buffer_adapterD2Ev
FNDA:0,_ZN8nlohmann6detail19json_sax_dom_parserINS_10basic_jsonISt3mapSt6vectorNSt7__cxx1112basic_stringIcSt11char_traitsIcESaIcEEEblmdSaNS_14adl_serializerES4_IhSaIhEEEEE9end_arrayEv
FNDA:0,_ZNK8nlohmann10basic_jsonISt3mapSt6vectorNSt7__cxx1112basic_stringIcSt11char_traitsIcESaIcEEEblmdSaNS_14adl_serializerES2_IhSaIhEEE4sizeEv
FNDA:0,_ZN8nlohmann6detail6parserINS_10basic_jsonISt3mapSt6vectorNSt7__cxx1112basic_stringIcSt11char_traitsIcESaIcEEEblmdSaNS_14adl_serializerES4_IhSaIhEEEEE9get_tokenEv
FNDA:0,_ZN8nlohmann6detail5lexerINS_10basic_jsonISt3mapSt6vectorNSt7__cxx1112basic_stringIcSt11char_traitsIcESaIcEEEblmdSaNS_14adl_serializerES4_IhSaIhEEEEE4scanEv
FNDA:0,_ZNK8nlohmann10basic_jsonISt3mapSt6vectorNSt7__cxx1112basic_stringIcSt11char_traitsIcESaIcEEEblmdSaNS_14adl_serializerES2_IhSaIhEEE8max_sizeEv
FNDA:0,_ZN8nlohmann14adl_serializerIdvE7to_jsonINS_10basic_jsonISt3mapSt6vectorNSt7__cxx1112basic_stringIcSt11char_traitsIcESaIcEEEblmdSaS0_S5_IhSaIhEEEERdEEDTcmclL_ZNS_12_GLOBAL__N_17to_jsonEEfp_cl7forwardIT0_Efp0_EEcvv_EERT_OSH_
FNDA:0,_ZN8nlohmann6detail5lexerINS_10basic_jsonISt3mapSt6vectorNSt7__cxx1112basic_stringIcSt11char_traitsIcESaIcEEEblmdSaNS_14adl_serializerES4_IhSaIhEEEEE5resetEv
FNDA:0,_ZN8nlohmann14adl_serializerIbvE7to_jsonINS_10basic_jsonISt3mapSt6vectorNSt7__cxx1112basic_stringIcSt11char_traitsIcESaIcEEEblmdSaS0_S5_IhSaIhEEEERbEEDTcmclL_ZNS_12_GLOBAL__N_17to_jsonEEfp_cl7forwardIT0_Efp0_EEcvv_EERT_OSH_
FNDA:0,_ZNK8nlohmann10basic_jsonISt3mapSt6vectorNSt7__cxx1112basic_stringIcSt11char_traitsIcESaIcEEEblmdSaNS_14adl_serializerES2_IhSaIhEEE7get_ptrIPKdLi0EEEDTcldtcl7declvalIRKSC_EE12get_impl_ptrcl7declvalIT_EEEEv
FNDA:0,_ZN8nlohmann6detail11other_errorC2EiPKc
FNDA:0,_ZN8nlohmann10basic_jsonISt3mapSt6vectorNSt7__cxx1112basic_stringIcSt11char_traitsIcESaIcEEEblmdSaNS_14adl_serializerES2_IhSaIhEEE17internal_binary_tC2ERKSB_
FNDA:0,_ZN8nlohmann6detail20external_constructorILNS0_7value_tE6EE9constructINS_10basic_jsonISt3mapSt6vectorNSt7__cxx1112basic_stringIcSt11char_traitsIcESaIcEEEblmdSaNS_14adl_serializerES7_IhSaIhEEEEEEvRT_NSI_17number_unsigned_tE
FNDA:0,_ZZN8nlohmann10basic_jsonISt3mapSt6vectorNSt7__cxx1112basic_stringIcSt11char_traitsIcESaIcEEEblmdSaNS_14adl_serializerES2_IhSaIhEEE6createINSC_17internal_binary_tEJEEEPT_DpOT0_ENKUlPSE_E_clESK_
FNDA:0,_ZN8nlohmann6detail19json_sax_dom_parserINS_10basic_jsonISt3mapSt6vectorNSt7__cxx1112basic_stringIcSt11char_traitsIcESaIcEEEblmdSaNS_14adl_serializerES4_IhSaIhEEEEE12handle_valueIRbEEPSE_OT_
FNDA:0,_ZN8nlohmann6detail28json_sax_dom_callback_parserINS_10basic_jsonISt3mapSt6vectorNSt7__cxx1112basic_stringIcSt11char_traitsIcESaIcEEEblmdSaNS_14adl_serializerES4_IhSaIhEEEEE4nullEv
FNDA:0,_ZN8nlohmann10basic_jsonISt3mapSt6vectorNSt7__cxx1112basic_stringIcSt11char_traitsIcESaIcEEEblmdSaNS_14adl_serializerES2_IhSaIhEEE6createINSC_17internal_binary_tEJEEEPT_DpOT0_
FNDA:0,_ZN8nlohmann6detail19json_sax_dom_parserINS_10basic_jsonISt3mapSt6vectorNSt7__cxx1112basic_stringIcSt11char_traitsIcESaIcEEEblmdSaNS_14adl_serializerES4_IhSaIhEEEEE12start_objectEm
FNDA:0,_ZN8nlohmann6detail19json_sax_dom_parserINS_10basic_jsonISt3mapSt6vectorNSt7__cxx1112basic_stringIcSt11char_traitsIcESaIcEEEblmdSaNS_14adl_serializerES4_IhSaIhEEEEE12handle_valueIRmEEPSE_OT_
FNDA:0,_ZN8nlohmann10basic_jsonISt3mapSt6vectorNSt7__cxx1112basic_stringIcSt11char_traitsIcESaIcEEEblmdSaNS_14adl_serializerES2_IhSaIhEEE5beginEv
FNDA:0,_ZN8nlohmann10basic_jsonISt3mapSt6vectorNSt7__cxx1112basic_stringIcSt11char_traitsIcESaIcEEEblmdSaNS_14adl_serializerES2_IhSaIhEEE6createIS8_JRKS8_EEEPT_DpOT0_
FNDA:0,_ZN8nlohmann6detail20primitive_iterator_tppEv
FNDA:0,_ZN8nlohmann6detail5lexerINS_10basic_jsonISt3mapSt6vectorNSt7__cxx1112basic_stringIcSt11char_traitsIcESaIcEEEblmdSaNS_14adl_serializerES4_IhSaIhEEEEE12scan_literalEPKcmNSF_10token_typeE
FNDA:0,_ZNK8nlohmann6detail10to_json_fnclINS_10basic_jsonISt3mapSt6vectorNSt7__cxx1112basic_stringIcSt11char_traitsIcESaIcEEEblmdSaNS_14adl_serializerES5_IhSaIhEEEERlEEDTcmcl7to_jsonfp_cl7forwardIT0_Efp0_EEcvv_EERT_OSH_
FNDA:0,_ZN8nlohmann6detail11parse_errorC2EimPKc
FNDA:0,_ZN8nlohmann6detail20external_constructorILNS0_7value_tE7EE9constructINS_10basic_jsonISt3mapSt6vectorNSt7__cxx1112basic_stringIcSt11char_traitsIcESaIcEEEblmdSaNS_14adl_serializerES7_IhSaIhEEEEEEvRT_NSI_14number_float_tE
FNDA:0,_ZN8nlohmann6detail12out_of_range6createEiRKNSt7__cxx1112basic_stringIcSt11char_traitsIcESaIcEEE
FNDA:0,_ZNK8nlohmann6detail10to_json_fnclINS_10basic_jsonISt3mapSt6vectorNSt7__cxx1112basic_stringIcSt11char_traitsIcESaIcEEEblmdSaNS_14adl_serializerES5_IhSaIhEEEERbEEDTcmcl7to_jsonfp_cl7forwardIT0_Efp0_EEcvv_EERT_OSH_
FNDA:0,_ZNK8nlohmann10basic_jsonISt3mapSt6vectorNSt7__cxx1112basic_stringIcSt11char_traitsIcESaIcEEEblmdSaNS_14adl_serializerES2_IhSaIhEEE15is_number_floatEv
FNDA:0,_ZN8nlohmann6detail16invalid_iterator6createEiRKNSt7__cxx1112basic_stringIcSt11char_traitsIcESaIcEEE
FNDA:0,_ZN8nlohmann10basic_jsonISt3mapSt6vectorNSt7__cxx1112basic_stringIcSt11char_traitsIcESaIcEEEblmdSaNS_14adl_serializerES2_IhSaIhEEEC2IRbbLi0EEEOT_
FNDA:0,_ZN8nlohmann6detail7to_jsonINS_10basic_jsonISt3mapSt6vectorNSt7__cxx1112basic_stringIcSt11char_traitsIcESaIcEEEblmdSaNS_14adl_serializerES4_IhSaIhEEEEbLi0EEEvRT_T0_
FNDA:0,_ZN8nlohmann10basic_jsonISt3mapSt6vectorNSt7__cxx1112basic_stringIcSt11char_traitsIcESaIcEEEblmdSaNS_14adl_serializerES2_IhSaIhEEEC2EOSC_
FNDA:0,_ZN8nlohmann10basic_jsonISt3mapSt6vectorNSt7__cxx1112basic_stringIcSt11char_traitsIcESaIcEEEblmdSaNS_14adl_serializerES2_IhSaIhEEEixEm
FNDA:0,_ZN8nlohmann6detail19json_sax_dom_parserINS_10basic_jsonISt3mapSt6vectorNSt7__cxx1112basic_stringIcSt11char_traitsIcESaIcEEEblmdSaNS_14adl_serializerES4_IhSaIhEEEEE4nullEv
FNDA:0,_ZNK8nlohmann10basic_jsonISt3mapSt6vectorNSt7__cxx1112basic_stringIcSt11char_traitsIcESaIcEEEblmdSaNS_14adl_serializerES2_IhSaIhEEE18is_number_unsignedEv
FNDA:0,_ZN8nlohmann6detail28json_sax_dom_callback_parserINS_10basic_jsonISt3mapSt6vectorNSt7__cxx1112basic_stringIcSt11char_traitsIcESaIcEEEblmdSaNS_14adl_serializerES4_IhSaIhEEEEEC2ERSE_St8functionIFbiNS0_6parserISE_E13parse_event_tESG_EEb
FNDA:0,_ZN8nlohmann6detail6parserINS_10basic_jsonISt3mapSt6vectorNSt7__cxx1112basic_stringIcSt11char_traitsIcESaIcEEEblmdSaNS_14adl_serializerES4_IhSaIhEEEEE18sax_parse_internalINS0_28json_sax_dom_callback_parserISE_EEEEbPT_
FNDA:0,_ZN8nlohmann14adl_serializerINSt7__cxx1112basic_stringIcSt11char_traitsIcESaIcEEEvE7to_jsonINS_10basic_jsonISt3mapSt6vectorS6_blmdSaS0_SB_IhSaIhEEEERS6_EEDTcmclL_ZNS_12_GLOBAL__N_17to_jsonEEfp_cl7forwardIT0_Efp0_EEcvv_EERT_OSH_
FNDA:0,_ZNK8nlohmann6detail9iter_implINS_10basic_jsonISt3mapSt6vectorNSt7__cxx1112basic_stringIcSt11char_traitsIcESaIcEEEblmdSaNS_14adl_serializerES4_IhSaIhEEEEEeqERKSF_
FNDA:0,_ZN8nlohmann6detail20primitive_iterator_t9set_beginEv
FNDA:0,_ZN8nlohmann6detail28json_sax_dom_callback_parserINS_10basic_jsonISt3mapSt6vectorNSt7__cxx1112basic_stringIcSt11char_traitsIcESaIcEEEblmdSaNS_14adl_serializerES4_IhSaIhEEEEE7booleanEb
FNDA:0,_ZNK8nlohmann10basic_jsonISt3mapSt6vectorNSt7__cxx1112basic_stringIcSt11char_traitsIcESaIcEEEblmdSaNS_14adl_serializerES2_IhSaIhEEE12is_discardedEv
FNDA:0,_ZNK8nlohmann10basic_jsonISt3mapSt6vectorNSt7__cxx1112basic_stringIcSt11char_traitsIcESaIcEEEblmdSaNS_14adl_serializerES2_IhSaIhEEE7get_ptrIPKmLi0EEEDTcldtcl7declvalIRKSC_EE12get_impl_ptrcl7declvalIT_EEEEv
FNDA:0,_ZNK8nlohmann6detail10to_json_fnclINS_10basic_jsonISt3mapSt6vectorNSt7__cxx1112basic_stringIcSt11char_traitsIcESaIcEEEblmdSaNS_14adl_serializerES5_IhSaIhEEEERSB_EEDTcmcl7to_jsonfp_cl7forwardIT0_Efp0_EEcvv_EERT_OSH_
FNDA:0,_ZN8nlohmann6detail28json_sax_dom_callback_parserINS_10basic_jsonISt3mapSt6vectorNSt7__cxx1112basic_stringIcSt11char_traitsIcESaIcEEEblmdSaNS_14adl_serializerES4_IhSaIhEEEEE12handle_valueINS0_7value_tEEESt4pairIbPSE_EOT_b
FNF:204
FNH:0
DA:99,0
DA:101,0
DA:2186,0
DA:2188,0
DA:2196,0
DA:2198,0
DA:2200,0
DA:2264,0
DA:2266,0
DA:2267,0
DA:2268,0
DA:2269,0
DA:2291,0
DA:2292,0
DA:2294,0
DA:2296,0
DA:2297,0
DA:2341,0
DA:2343,0
DA:2344,0
DA:2345,0
DA:2349,0
DA:2350,0
DA:2395,0
DA:2397,0
DA:2398,0
DA:2399,0
DA:2403,0
DA:2442,0
DA:2444,0
DA:2445,0
DA:2446,0
DA:2450,0
DA:2480,0
DA:2482,0
DA:2483,0
DA:2484,0
DA:2488,0
DA:3489,0
DA:3491,0
DA:3493,0
DA:3495,0
DA:3496,0
DA:3498,0
DA:3500,0
DA:3501,0
DA:3503,0
DA:3505,0
DA:3506,0
DA:3508,0
DA:3510,0
DA:3511,0
DA:3514,0
DA:3515,0
DA:3517,0
DA:3580,0
DA:3584,0
DA:3812,0
DA:3814,0
DA:3815,0
DA:3816,0
DA:3817,0
DA:3824,0
DA:3826,0
DA:3827,0
DA:3828,0
DA:3829,0
DA:3876,0
DA:3878,0
DA:3879,0
DA:3880,0
DA:3881,0
DA:3888,0
DA:3890,0
DA:3891,0
DA:3892,0
DA:3893,0
DA:3900,0
DA:3902,0
DA:3903,0
DA:3904,0
DA:3905,0
DA:4005,0
DA:4007,0
DA:4008,0
DA:4012,0
DA:4014,0
DA:4015,0
DA:4025,0
DA:4027,0
DA:4028,0
DA:4032,0
DA:4034,0
DA:4035,0
DA:4039,0
DA:4041,0
DA:4042,0
DA:4136,0
DA:4139,0
DA:4168,0
DA:4172,0
DA:4173,0
DA:4185,0
DA:4189,0
DA:4190,0
DA:4266,0
DA:4355,0
DA:4356,0
DA:4357,0
DA:4364,0
DA:4366,0
DA:4368,0
DA:4370,0
DA:4371,0
DA:4374,0
DA:4607,0
DA:4608,0
DA:4612,0
DA:4613,0
DA:4614,0
DA:4616,0
DA:4617,0
DA:4619,0
DA:4627,0
DA:4628,0
DA:4631,0
DA:4636,0
DA:4638,0
DA:4650,0
DA:4651,0
DA:4653,0
DA:4655,0
DA:4835,0
DA:4836,0
DA:4837,0
DA:4844,0
DA:4846,0
DA:4848,0
DA:4849,0
DA:4852,0
DA:4854,0
DA:4855,0
DA:4858,0
DA:4860,0
DA:4861,0
DA:4864,0
DA:4866,0
DA:4867,0
DA:4870,0
DA:4872,0
DA:4873,0
DA:4876,0
DA:4878,0
DA:4879,0
DA:4888,0
DA:4890,0
DA:4892,0
DA:4894,0
DA:4898,0
DA:4901,0
DA:4904,0
DA:4905,0
DA:4908,0
DA:4910,0
DA:4911,0
DA:4914,0
DA:4916,0
DA:4918,0
DA:4920,0
DA:4924,0
DA:4927,0
DA:4929,0
DA:4930,0
DA:4933,0
DA:4936,0
DA:4937,0
DA:4940,0
DA:4942,0
DA:4943,0
DA:4944,0
DA:4945,0
DA:4958,0
DA:4961,0
DA:4963,0
DA:4975,0
DA:4977,0
DA:4979,0
DA:4980,0
DA:4983,0
DA:4985,0
DA:4987,0
DA:4988,0
DA:4991,0
DA:4992,0
DA:4993,0
DA:4994,0
DA:5051,0
DA:5054,0
DA:5056,0
DA:5057,0
DA:5064,0
DA:5066,0
DA:5068,0
DA:5069,0
DA:5072,0
DA:5074,0
DA:5075,0
DA:5078,0
DA:5080,0
DA:5081,0
DA:5084,0
DA:5086,0
DA:5087,0
DA:5090,0
DA:5092,0
DA:5093,0
DA:5096,0
DA:5098,0
DA:5099,0
DA:5108,0
DA:5111,0
DA:5112,0
DA:5114,0
DA:5115,0
DA:5118,0
DA:5120,0
DA:5123,0
DA:5126,0
DA:5128,0
DA:5131,0
DA:5132,0
DA:5135,0
DA:5137,0
DA:5140,0
DA:5141,0
DA:5143,0
DA:5145,0
DA:5148,0
DA:5151,0
DA:5152,0
DA:5153,0
DA:5154,0
DA:5156,0
DA:5159,0
DA:5161,0
DA:5163,0
DA:5164,0
DA:5169,0
DA:5172,0
DA:5174,0
DA:5175,0
DA:5177,0
DA:5178,0
DA:5181,0
DA:5183,0
DA:5186,0
DA:5189,0
DA:5191,0
DA:5193,0
DA:5195,0
DA:5196,0
DA:5199,0
DA:5203,0
DA:5204,0
DA:5205,0
DA:5206,0
DA:5209,0
DA:5211,0
DA:5214,0
DA:5217,0
DA:5220,0
DA:5221,0
DA:5224,0
DA:5226,0
DA:5227,0
DA:5228,0
DA:5229,0
DA:5242,0
DA:5245,0
DA:5247,0
DA:5267,0
DA:5269,0
DA:5273,0
DA:5275,0
DA:5279,0
DA:5282,0
DA:5285,0
DA:5287,0
DA:5290,0
DA:5292,0
DA:5293,0
DA:5298,0
DA:5300,0
DA:5304,0
DA:5307,0
DA:5309,0
DA:5310,0
DA:5314,0
DA:5316,0
DA:5317,0
DA:5318,0
DA:5320,0
DA:5322,0
DA:5325,0
DA:5326,0
DA:5327,0
DA:5328,0
DA:7927,0
DA:7929,0
DA:7931,0
DA:7932,0
DA:7933,0
DA:7934,0
DA:7935,0
DA:7936,0
DA:7937,0
DA:7938,0
DA:7939,0
DA:7940,0
DA:7941,0
DA:7944,0
DA:7945,0
DA:7946,0
DA:7947,0
DA:7948,0
DA:7949,0
DA:7950,0
DA:7951,0
DA:7952,0
DA:7953,0
DA:7954,0
DA:7955,0
DA:7956,0
DA:7957,0
DA:7958,0
DA:7959,0
DA:7960,0
DA:7961,0
DA:7962,0
DA:7970,0
DA:7971,0
DA:7978,0
DA:7987,0
DA:7989,0
DA:7990,0
DA:7991,0
DA:8013,0
DA:8016,0
DA:8017,0
DA:8019,0
DA:8020,0
DA:8022,0
DA:8024,0
DA:8026,0
DA:8028,0
DA:8030,0
DA:8032,0
DA:8034,0
DA:8038,0
DA:8042,0
DA:8043,0
DA:8061,0
DA:8063,0
DA:8064,0
DA:8066,0
DA:8068,0
DA:8069,0
DA:8071,0
DA:8075,0
DA:8076,0
DA:8080,0
DA:8098,0
DA:8101,0
DA:8104,0
DA:8106,0
DA:8109,0
DA:8112,0
DA:8114,0
DA:8115,0
DA:8119,0
DA:8121,0
DA:8125,0
DA:8127,0
DA:8130,0
DA:8131,0
DA:8132,0
DA:8134,0
DA:8135,0
DA:8136,0
DA:8138,0
DA:8139,0
DA:8140,0
DA:8142,0
DA:8143,0
DA:8144,0
DA:8146,0
DA:8147,0
DA:8148,0
DA:8150,0
DA:8151,0
DA:8152,0
DA:8154,0
DA:8155,0
DA:8156,0
DA:8158,0
DA:8159,0
DA:8160,0
DA:8163,0
DA:8165,0
DA:8166,0
DA:8168,0
DA:8170,0
DA:8171,0
DA:8175,0
DA:8178,0
DA:8180,0
DA:8182,0
DA:8184,0
DA:8185,0
DA:8189,0
DA:8192,0
DA:8194,0
DA:8196,0
DA:8200,0
DA:8204,0
DA:8205,0
DA:8210,0
DA:8211,0
DA:8213,0
DA:8216,0
DA:8218,0
DA:8219,0
DA:8224,0
DA:8227,0
DA:8230,0
DA:8232,0
DA:8235,0
DA:8236,0
DA:8238,0
DA:8241,0
DA:8242,0
DA:8243,0
DA:8248,0
DA:8249,0
DA:8250,0
DA:8251,0
DA:8254,0
DA:8258,0
DA:8259,0
DA:8260,0
DA:8263,0
DA:8267,0
DA:8269,0
DA:8270,0
DA:8273,0
DA:8275,0
DA:8276,0
DA:8279,0
DA:8281,0
DA:8282,0
DA:8285,0
DA:8287,0
DA:8288,0
DA:8291,0
DA:8293,0
DA:8294,0
DA:8297,0
DA:8299,0
DA:8300,0
DA:8303,0
DA:8305,0
DA:8306,0
DA:8309,0
DA:8311,0
DA:8312,0
DA:8315,0
DA:8317,0
DA:8318,0
DA:8321,0
DA:8323,0
DA:8324,0
DA:8327,0
DA:8329,0
DA:8330,0
DA:8333,0
DA:8335,0
DA:8336,0
DA:8339,0
DA:8341,0
DA:8342,0
DA:8345,0
DA:8347,0
DA:8348,0
DA:8351,0
DA:8353,0
DA:8354,0
DA:8357,0
DA:8359,0
DA:8360,0
DA:8363,0
DA:8365,0
DA:8366,0
DA:8369,0
DA:8371,0
DA:8372,0
DA:8375,0
DA:8377,0
DA:8378,0
DA:8381,0
DA:8383,0
DA:8384,0
DA:8387,0
DA:8389,0
DA:8390,0
DA:8393,0
DA:8395,0
DA:8396,0
DA:8399,0
DA:8401,0
DA:8402,0
DA:8405,0
DA:8407,0
DA:8408,0
DA:8411,0
DA:8413,0
DA:8414,0
DA:8417,0
DA:8419,0
DA:8420,0
DA:8423,0
DA:8425,0
DA:8426,0
DA:8429,0
DA:8431,0
DA:8432,0
DA:8435,0
DA:8437,0
DA:8438,0
DA:8441,0
DA:8443,0
DA:8444,0
DA:8447,0
DA:8449,0
DA:8450,0
DA:8453,0
DA:8455,0
DA:8456,0
DA:8460,0
DA:8555,0
DA:8556,0
DA:8560,0
DA:8591,0
DA:8593,0
DA:8595,0
DA:8599,0
DA:8601,0
DA:8603,0
DA:8605,0
DA:8610,0
DA:8625,0
DA:8627,0
DA:8629,0
DA:8633,0
DA:8635,0
DA:8637,0
DA:8639,0
DA:8643,0
DA:8645,0
DA:8647,0
DA:8649,0
DA:8653,0
DA:8657,0
DA:8659,0
DA:8661,0
DA:8665,0
DA:8667,0
DA:8669,0
DA:8671,0
DA:8675,0
DA:8677,0
DA:8678,0
DA:8691,0
DA:8693,0
DA:8694,0
DA:8742,0
DA:8745,0
DA:8749,0
DA:8752,0
DA:8754,0
DA:8756,0
DA:8757,0
DA:8760,0
DA:8762,0
DA:8763,0
DA:8766,0
DA:8776,0
DA:8777,0
DA:8785,0
DA:8787,0
DA:8788,0
DA:8790,0
DA:8792,0
DA:8793,0
DA:8796,0
DA:8806,0
DA:8807,0
DA:8810,0
DA:8812,0
DA:8813,0
DA:8817,0
DA:8819,0
DA:8821,0
DA:8823,0
DA:8824,0
DA:8827,0
DA:8830,0
DA:8831,0
DA:8834,0
DA:8835,0
DA:8838,0
DA:8840,0
DA:8842,0
DA:8853,0
DA:8854,0
DA:8857,0
DA:8859,0
DA:8860,0
DA:8863,0
DA:8866,0
DA:8867,0
DA:8870,0
DA:8871,0
DA:8874,0
DA:8876,0
DA:8877,0
DA:8879,0
DA:8890,0
DA:8891,0
DA:8894,0
DA:8896,0
DA:8897,0
DA:8901,0
DA:8903,0
DA:8905,0
DA:8916,0
DA:8917,0
DA:8920,0
DA:8923,0
DA:8924,0
DA:8927,0
DA:8928,0
DA:8931,0
DA:8933,0
DA:8934,0
DA:8936,0
DA:8939,0
DA:8940,0
DA:8943,0
DA:8954,0
DA:8955,0
DA:8958,0
DA:8960,0
DA:8962,0
DA:8966,0
DA:8968,0
DA:8970,0
DA:8981,0
DA:8982,0
DA:8985,0
DA:8987,0
DA:8988,0
DA:8992,0
DA:8994,0
DA:8996,0
DA:9007,0
DA:9008,0
DA:9011,0
DA:9012,0
DA:9015,0
DA:9018,0
DA:9020,0
DA:9021,0
DA:9024,0
DA:9026,0
DA:9029,0
DA:9031,0
DA:9033,0
DA:9034,0
DA:9036,0
DA:9040,0
DA:9042,0
DA:9045,0
DA:9047,0
DA:9049,0
DA:9050,0
DA:9052,0
DA:9059,0
DA:9062,0
DA:9064,0
DA:9073,0
DA:9076,0
DA:9077,0
DA:9079,0
DA:9081,0
DA:9082,0
DA:9085,0
DA:9093,0
DA:9095,0
DA:9096,0
DA:9097,0
DA:9098,0
DA:9110,0
DA:9112,0
DA:9113,0
DA:9115,0
DA:9118,0
DA:9122,0
DA:9125,0
DA:9127,0
DA:9130,0
DA:9132,0
DA:9133,0
DA:9136,0
DA:9147,0
DA:9149,0
DA:9151,0
DA:9154,0
DA:9156,0
DA:9158,0
DA:9163,0
DA:9166,0
DA:9168,0
DA:9169,0
DA:9171,0
DA:9174,0
DA:9176,0
DA:9177,0
DA:9185,0
DA:9187,0
DA:9191,0
DA:9193,0
DA:9197,0
DA:9199,0
DA:9203,0
DA:9205,0
DA:9213,0
DA:9215,0
DA:9221,0
DA:9224,0
DA:9225,0
DA:9227,0
DA:9230,0
DA:9231,0
DA:9232,0
DA:9233,0
DA:9237,0
DA:9241,0
DA:9242,0
DA:9246,0
DA:9248,0
DA:9259,0
DA:9261,0
DA:9264,0
DA:9269,0
DA:9270,0
DA:9273,0
DA:9276,0
DA:9278,0
DA:9279,0
DA:9285,0
DA:9287,0
DA:9289,0
DA:9292,0
DA:9293,0
DA:9294,0
DA:9295,0
DA:9296,0
DA:9297,0
DA:9298,0
DA:9299,0
DA:9300,0
DA:9301,0
DA:9302,0
DA:9303,0
DA:9306,0
DA:9307,0
DA:9308,0
DA:9309,0
DA:9310,0
DA:9311,0
DA:9314,0
DA:9315,0
DA:9318,0
DA:9329,0
DA:9333,0
DA:9335,0
DA:9338,0
DA:9339,0
DA:9340,0
DA:9447,0
DA:9450,0
DA:9453,0
DA:9454,0
DA:9466,0
DA:9468,0
DA:9470,0
DA:9471,0
DA:9472,0
DA:9475,0
DA:9477,0
DA:9479,0
DA:9484,0
DA:9486,0
DA:9487,0
DA:9492,0
DA:9494,0
DA:9496,0
DA:9499,0
DA:9500,0
DA:9501,0
DA:9504,0
DA:9506,0
DA:9508,0
DA:9513,0
DA:9515,0
DA:9516,0
DA:9518,0
DA:9555,0
DA:9559,0
DA:9561,0
DA:9563,0
DA:9565,0
DA:9568,0
DA:9570,0
DA:9572,0
DA:9574,0
DA:9578,0
DA:9580,0
DA:9582,0
DA:9584,0
DA:9588,0
DA:9590,0
DA:9592,0
DA:9593,0
DA:9595,0
DA:9597,0
DA:9601,0
DA:9603,0
DA:9605,0
DA:9606,0
DA:9610,0
DA:9613,0
DA:9614,0
DA:9617,0
DA:9619,0
DA:9621,0
DA:9625,0
DA:9627,0
DA:9629,0
DA:9631,0
DA:9635,0
DA:9638,0
DA:9641,0
DA:9643,0
DA:9645,0
DA:9647,0
DA:9649,0
DA:9652,0
DA:9654,0
DA:9657,0
DA:9660,0
DA:9662,0
DA:9664,0
DA:9666,0
DA:9669,0
DA:9671,0
DA:9673,0
DA:9675,0
DA:9678,0
DA:9680,0
DA:9682,0
DA:9684,0
DA:9687,0
DA:9689,0
DA:9691,0
DA:9693,0
DA:9696,0
DA:9698,0
DA:9700,0
DA:9702,0
DA:9705,0
DA:9707,0
DA:9709,0
DA:9711,0
DA:9714,0
DA:9717,0
DA:9719,0
DA:9720,0
DA:9723,0
DA:9725,0
DA:9727,0
DA:9728,0
DA:9730,0
DA:9734,0
DA:9738,0
DA:9741,0
DA:9744,0
DA:9747,0
DA:9750,0
DA:9751,0
DA:9755,0
DA:9757,0
DA:9759,0
DA:9766,0
DA:9767,0
DA:9768,0
DA:9769,0
DA:9772,0
DA:9774,0
DA:9775,0
DA:9780,0
DA:9783,0
DA:9785,0
DA:9787,0
DA:9788,0
DA:9791,0
DA:9793,0
DA:9797,0
DA:9799,0
DA:9801,0
DA:9802,0
DA:9806,0
DA:9807,0
DA:9811,0
DA:9813,0
DA:9815,0
DA:9822,0
DA:9823,0
DA:9824,0
DA:9825,0
DA:9828,0
DA:9830,0
DA:9831,0
DA:9834,0
DA:9837,0
DA:9839,0
DA:9842,0
DA:9844,0
DA:9846,0
DA:9848,0
DA:9851,0
DA:9853,0
DA:9855,0
DA:9860,0
DA:9863,0
DA:9865,0
DA:9868,0
DA:9869,0
DA:9923,0
DA:9925,0
DA:9926,0
DA:9929,0
DA:9931,0
DA:9932,0
DA:9935,0
DA:9937,0
DA:9946,0
DA:9948,0
DA:9968,0
DA:9970,0
DA:9971,0
DA:10127,0
DA:10129,0
DA:10131,0
DA:10133,0
DA:10135,0
DA:10136,0
DA:10139,0
DA:10141,0
DA:10142,0
DA:10145,0
DA:10147,0
DA:10148,0
DA:10151,0
DA:10191,0
DA:10192,0
DA:10193,0
DA:10213,0
DA:10215,0
DA:10217,0
DA:10219,0
DA:10221,0
DA:10222,0
DA:10225,0
DA:10227,0
DA:10228,0
DA:10231,0
DA:10234,0
DA:10235,0
DA:10238,0
DA:10240,0
DA:10241,0
DA:10244,0
DA:10250,0
DA:10252,0
DA:10254,0
DA:10256,0
DA:10258,0
DA:10259,0
DA:10262,0
DA:10264,0
DA:10265,0
DA:10268,0
DA:10270,0
DA:10271,0
DA:10274,0
DA:10318,0
DA:10320,0
DA:10322,0
DA:10324,0
DA:10326,0
DA:10327,0
DA:10330,0
DA:10332,0
DA:10333,0
DA:10336,0
DA:10338,0
DA:10340,0
DA:10343,0
DA:10363,0
DA:10365,0
DA:10367,0
DA:10369,0
DA:10371,0
DA:10372,0
DA:10375,0
DA:10377,0
DA:10378,0
DA:10381,0
DA:10383,0
DA:10384,0
DA:10388,0
DA:10438,0
DA:10441,0
DA:10443,0
DA:10446,0
DA:10448,0
DA:10450,0
DA:10451,0
DA:10453,0
DA:10454,0
DA:10456,0
DA:10457,0
DA:10465,0
DA:10467,0
DA:16400,0
DA:16401,0
DA:16417,0
DA:16419,0
DA:16422,0
DA:16424,0
DA:16426,0
DA:16427,0
DA:16428,0
DA:16429,0
DA:16430,0
DA:16483,0
DA:16485,0
DA:16487,0
DA:16489,0
DA:16491,0
DA:16493,0
DA:16495,0
DA:16497,0
DA:16498,0
DA:16501,0
DA:16503,0
DA:16504,0
DA:16507,0
DA:16509,0
DA:16510,0
DA:16513,0
DA:16515,0
DA:16516,0
DA:16519,0
DA:16521,0
DA:16522,0
DA:16525,0
DA:16527,0
DA:16528,0
DA:16531,0
DA:16533,0
DA:16534,0
DA:16537,0
DA:16539,0
DA:16540,0
DA:16543,0
DA:16545,0
DA:16546,0
DA:16549,0
DA:16551,0
DA:16552,0
DA:16556,0
DA:16559,0
DA:16562,0
DA:16564,0
DA:16565,0
DA:16574,0
DA:16576,0
DA:16577,0
DA:16586,0
DA:16588,0
DA:16589,0
DA:16598,0
DA:16600,0
DA:16601,0
DA:16609,0
DA:16612,0
DA:16615,0
DA:16617,0
DA:16618,0
DA:16620,0
DA:16622,0
DA:16623,0
DA:16625,0
DA:16629,0
DA:16632,0
DA:16633,0
DA:16637,0
DA:16639,0
DA:16642,0
DA:16644,0
DA:16646,0
DA:16648,0
DA:16651,0
DA:16658,0
DA:16660,0
DA:16662,0
DA:16663,0
DA:16664,0
DA:16665,0
DA:16666,0
DA:16668,0
DA:16670,0
DA:16671,0
DA:16672,0
DA:16673,0
DA:16674,0
DA:16676,0
DA:16678,0
DA:16679,0
DA:16680,0
DA:16681,0
DA:16682,0
DA:16684,0
DA:16686,0
DA:16687,0
DA:16688,0
DA:16689,0
DA:16690,0
DA:16692,0
DA:16694,0
DA:16697,0
DA:16709,0
DA:16711,0
DA:16712,0
DA:16713,0
DA:16714,0
DA:16828,0
DA:16829,0
DA:16831,0
DA:16832,0
DA:16852,0
DA:16853,0
DA:16855,0
DA:16856,0
DA:16925,0
DA:16928,0
DA:16929,0
DA:16930,0
DA:16931,0
DA:17514,0
DA:17515,0
DA:17518,0
DA:17520,0
DA:17522,0
DA:17524,0
DA:17525,0
DA:17528,0
DA:17530,0
DA:17531,0
DA:17534,0
DA:17536,0
DA:17537,0
DA:17540,0
DA:17542,0
DA:17543,0
DA:17546,0
DA:17548,0
DA:17549,0
DA:17552,0
DA:17554,0
DA:17555,0
DA:17558,0
DA:17560,0
DA:17561,0
DA:17564,0
DA:17566,0
DA:17567,0
DA:17570,0
DA:17571,0
DA:17574,0
DA:17575,0
DA:17603,0
DA:17604,0
DA:17605,0
DA:17608,0
DA:17611,0
DA:17612,0
DA:17614,0
DA:17615,0
DA:17640,0
DA:17648,0
DA:17651,0
DA:17652,0
DA:17654,0
DA:17655,0
DA:17673,0
DA:17675,0
DA:17676,0
DA:17677,0
DA:17870,0
DA:17872,0
DA:17892,0
DA:17894,0
DA:17951,0
DA:17953,0
DA:17979,0
DA:17981,0
DA:18007,0
DA:18009,0
DA:18029,0
DA:18031,0
DA:18051,0
DA:18053,0
DA:18073,0
DA:18075,0
DA:18095,0
DA:18097,0
DA:18122,0
DA:18124,0
DA:18148,0
DA:18150,0
DA:18214,0
DA:18216,0
DA:18226,0
DA:18228,0
DA:18238,0
DA:18240,0
DA:18250,0
DA:18252,0
DA:18399,0
DA:18411,0
DA:18412,0
DA:18558,0
DA:18561,0
DA:18698,0
DA:18701,0
DA:18936,0
DA:18939,0
DA:18941,0
DA:18942,0
DA:18943,0
DA:18947,0
DA:18950,0
DA:18952,0
DA:18953,0
DA:18954,0
DA:18957,0
DA:18960,0
DA:19110,0
DA:19113,0
DA:19115,0
DA:19116,0
DA:19117,0
DA:19121,0
DA:19123,0
DA:19126,0
DA:19576,0
DA:19579,0
DA:19581,0
DA:19584,0
DA:19586,0
DA:19588,0
DA:19595,0
DA:19597,0
DA:19600,0
DA:19602,0
DA:19603,0
DA:19604,0
DA:19605,0
DA:19606,0
DA:19607,0
DA:19609,0
DA:19610,0
DA:19611,0
DA:19612,0
DA:19613,0
DA:19615,0
DA:19616,0
DA:19617,0
DA:19620,0
DA:19622,0
DA:19623,0
DA:19626,0
DA:19628,0
DA:19629,0
DA:19632,0
DA:19633,0
DA:19636,0
DA:20026,0
DA:20028,0
DA:20029,0
DA:20030,0
DA:20097,0
DA:20099,0
DA:20100,0
DA:20101,0
DA:20549,0
DA:20551,0
DA:20553,0
DA:20556,0
DA:20559,0
DA:20562,0
DA:20565,0
DA:20568,0
DA:20571,0
DA:20574,0
DA:20620,0
DA:20622,0
DA:20624,0
DA:20627,0
DA:20630,0
DA:20633,0
DA:20636,0
DA:20639,0
DA:22127,0
DA:22131,0
DA:22132,0
DA:22133,0
DA:22134,0
DA:22369,0
DA:22372,0
DA:22374,0
DA:22375,0
DA:22376,0
DA:22377,0
DA:22378,0
DA:22379,0
DA:22380,0
DA:22381,0
DA:22382,0
DA:22383,0
DA:22384,0
DA:22385,0
DA:22386,0
DA:22387,0
DA:22388,0
DA:22389,0
LF:1369
LH:0
end_of_record
TN:
SF:/home/lex/for_tp/TP2022/task4/src/00-aplusb/Foo.cpp
FN:3,_Z3Foov
FNDA:8,_Z3Foov
FNF:1
FNH:1
DA:3,8
DA:5,8
LF:2
LH:2
end_of_record
TN:
SF:/home/lex/for_tp/TP2022/task4/src/01-simple-library/Functions.cpp
FN:4,_Z3Addii
FN:8,_Z6IsLeapi
FN:29,_Z12GetMonthDaysii
FNDA:56,_Z6IsLeapi
FNDA:16,_Z3Addii
FNDA:48,_Z12GetMonthDaysii
FNF:3
FNH:3
DA:4,16
DA:5,16
DA:8,56
DA:9,56
DA:10,8
DA:13,48
DA:14,32
DA:15,16
DA:16,8
DA:18,8
DA:21,16
DA:25,16
DA:29,48
DA:30,48
DA:31,16
DA:32,8
DA:34,8
DA:37,32
DA:38,8
DA:40,24
DA:41,8
DA:43,16
LF:22
LH:22
end_of_record
TN:
SF:/home/lex/for_tp/TP2022/task4/src/02-tree/Tree.cpp
FN:10,_Z7GetTreeRKNSt7__cxx1112basic_stringIcSt11char_traitsIcESaIcEEEb
FN:39,_Z16FilterEmptyNodesRK8FileNodeRKNSt10filesystem7__cxx114pathE
FN:52,_ZeqRK8FileNodeS1_
FNDA:24590,_ZeqRK8FileNodeS1_
FNDA:4692,_Z7GetTreeRKNSt7__cxx1112basic_stringIcSt11char_traitsIcESaIcEEEb
FNDA:0,_Z16FilterEmptyNodesRK8FileNodeRKNSt10filesystem7__cxx114pathE
FNF:3
FNH:2
DA:10,4692
DA:11,4692
DA:12,4692
DA:13,14
DA:16,4678
DA:17,0
DA:19,4678
DA:20,4678
DA:21,92600
DA:22,78566
DA:23,4665
DA:24,9330
DA:27,73901
DA:28,11376
DA:30,62525
DA:31,125050
DA:34,4678
DA:35,4678
DA:36,14
DA:39,0
DA:40,0
DA:41,0
DA:44,0
DA:45,0
DA:47,0
DA:48,0
DA:52,24590
DA:53,24590
LF:28
LH:20
end_of_record
TN:
SF:/home/lex/for_tp/TP2022/task4/src/03-weather/Weather.cpp
FN:11,_ZN7Weather18GetResponseForCityERKNSt7__cxx1112basic_stringIcSt11char_traitsIcESaIcEEERKN3cpr3UrlE
FN:21,_ZN7Weather14GetTemperatureERKNSt7__cxx1112basic_stringIcSt11char_traitsIcESaIcEEE
FN:26,_ZN7Weather3GetERKNSt7__cxx1112basic_stringIcSt11char_traitsIcESaIcEEERKN3cpr3UrlE
FN:36,_ZN7Weather19GetDifferenceStringERKNSt7__cxx1112basic_stringIcSt11char_traitsIcESaIcEEES7_
FN:49,_ZN7Weather24FindDiffBetweenTwoCitiesERKNSt7__cxx1112basic_stringIcSt11char_traitsIcESaIcEEES7_
FN:53,_ZN7Weather9SetApiKeyERKNSt7__cxx1112basic_stringIcSt11char_traitsIcESaIcEEE
FN:57,_ZN7Weather22GetTomorrowTemperatureERKNSt7__cxx1112basic_stringIcSt11char_traitsIcESaIcEEE
FN:62,_ZN7Weather15GetTomorrowDiffERKNSt7__cxx1112basic_stringIcSt11char_traitsIcESaIcEEE
FNDA:0,_ZN7Weather14GetTemperatureERKNSt7__cxx1112basic_stringIcSt11char_traitsIcESaIcEEE
FNDA:0,_ZN7Weather3GetERKNSt7__cxx1112basic_stringIcSt11char_traitsIcESaIcEEERKN3cpr3UrlE
FNDA:0,_ZN7Weather22GetTomorrowTemperatureERKNSt7__cxx1112basic_stringIcSt11char_traitsIcESaIcEEE
FNDA:0,_ZN7Weather15GetTomorrowDiffERKNSt7__cxx1112basic_stringIcSt11char_traitsIcESaIcEEE
FNDA:0,_ZN7Weather18GetResponseForCityERKNSt7__cxx1112basic_stringIcSt11char_traitsIcESaIcEEERKN3cpr3UrlE
FNDA:0,_ZN7Weather19GetDifferenceStringERKNSt7__cxx1112basic_stringIcSt11char_traitsIcESaIcEEES7_
FNDA:0,_ZN7Weather9SetApiKeyERKNSt7__cxx1112basic_stringIcSt11char_traitsIcESaIcEEE
FNDA:0,_ZN7Weather24FindDiffBetweenTwoCitiesERKNSt7__cxx1112basic_stringIcSt11char_traitsIcESaIcEEES7_
FNF:8
FNH:0
DA:11,0
DA:12,0
DA:14,0
DA:15,0
DA:17,0
DA:18,0
DA:19,0
DA:21,0
DA:22,0
DA:23,0
DA:24,0
DA:26,0
DA:28,0
DA:30,0
DA:32,0
DA:33,0
DA:36,0
DA:37,0
DA:38,0
DA:39,0
DA:40,0
DA:41,0
DA:43,0
DA:46,0
DA:47,0
DA:49,0
DA:50,0
DA:53,0
DA:54,0
DA:55,0
DA:57,0
DA:58,0
DA:59,0
DA:60,0
DA:62,0
DA:63,0
DA:64,0
DA:66,0
DA:68,0
DA:70,0
DA:71,0
DA:72,0
DA:73,0
DA:74,0
DA:75,0
DA:76,0
DA:77,0
DA:79,0
DA:82,0
DA:83,0
DA:84,0
LF:51
LH:0
end_of_record
